Archive member included to satisfy reference by file (symbol)

Build_STM32G431_Slcan_WeActStudioV2/STM32Cube/libstm32cube.a(stm32g4xx_hal.o)
                              Build_STM32G431_Slcan_WeActStudioV2/dfu.o (HAL_DeInit)
Build_STM32G431_Slcan_WeActStudioV2/STM32Cube/libstm32cube.a(stm32g4xx_hal_cortex.o)
                              Build_STM32G431_Slcan_WeActStudioV2/STM32Cube/libstm32cube.a(stm32g4xx_hal.o) (HAL_NVIC_SetPriorityGrouping)
Build_STM32G431_Slcan_WeActStudioV2/STM32Cube/libstm32cube.a(stm32g4xx_hal_fdcan.o)
                              Build_STM32G431_Slcan_WeActStudioV2/can.o (HAL_FDCAN_Init)
Build_STM32G431_Slcan_WeActStudioV2/STM32Cube/libstm32cube.a(stm32g4xx_hal_flash.o)
                              Build_STM32G431_Slcan_WeActStudioV2/system.o (HAL_FLASH_Program)
Build_STM32G431_Slcan_WeActStudioV2/STM32Cube/libstm32cube.a(stm32g4xx_hal_flash_ex.o)
                              Build_STM32G431_Slcan_WeActStudioV2/system.o (HAL_FLASHEx_Erase)
Build_STM32G431_Slcan_WeActStudioV2/STM32Cube/libstm32cube.a(stm32g4xx_hal_gpio.o)
                              Build_STM32G431_Slcan_WeActStudioV2/can.o (HAL_GPIO_Init)
Build_STM32G431_Slcan_WeActStudioV2/STM32Cube/libstm32cube.a(stm32g4xx_hal_pcd.o)
                              Build_STM32G431_Slcan_WeActStudioV2/usb_lowlevel.o (HAL_PCD_Init)
Build_STM32G431_Slcan_WeActStudioV2/STM32Cube/libstm32cube.a(stm32g4xx_hal_pcd_ex.o)
                              Build_STM32G431_Slcan_WeActStudioV2/usb_lowlevel.o (HAL_PCDEx_PMAConfig)
Build_STM32G431_Slcan_WeActStudioV2/STM32Cube/libstm32cube.a(stm32g4xx_hal_pwr_ex.o)
                              Build_STM32G431_Slcan_WeActStudioV2/system.o (HAL_PWREx_ControlVoltageScaling)
Build_STM32G431_Slcan_WeActStudioV2/STM32Cube/libstm32cube.a(stm32g4xx_hal_rcc.o)
                              Build_STM32G431_Slcan_WeActStudioV2/dfu.o (HAL_RCC_DeInit)
Build_STM32G431_Slcan_WeActStudioV2/STM32Cube/libstm32cube.a(stm32g4xx_hal_rcc_ex.o)
                              Build_STM32G431_Slcan_WeActStudioV2/system.o (HAL_RCCEx_PeriphCLKConfig)
Build_STM32G431_Slcan_WeActStudioV2/STM32Cube/libstm32cube.a(stm32g4xx_hal_tim.o)
                              Build_STM32G431_Slcan_WeActStudioV2/system.o (HAL_TIM_Base_Init)
Build_STM32G431_Slcan_WeActStudioV2/STM32Cube/libstm32cube.a(stm32g4xx_hal_tim_ex.o)
                              Build_STM32G431_Slcan_WeActStudioV2/STM32Cube/libstm32cube.a(stm32g4xx_hal_tim.o) (TIMEx_DMACommutationCplt)
Build_STM32G431_Slcan_WeActStudioV2/STM32Cube/libstm32cube.a(stm32g4xx_ll_usb.o)
                              Build_STM32G431_Slcan_WeActStudioV2/STM32Cube/libstm32cube.a(stm32g4xx_hal_pcd.o) (USB_EnableGlobalInt)
Build_STM32G431_Slcan_WeActStudioV2/STM32Cube/libstm32cube.a(stm32g4xx_hal_dma.o)
                              Build_STM32G431_Slcan_WeActStudioV2/STM32Cube/libstm32cube.a(stm32g4xx_hal_tim.o) (HAL_DMA_Start_IT)
Build_STM32G431_Slcan_WeActStudioV2/STM32Cube/libstm32cube.a(stm32g4xx_hal_pwr.o)
                              Build_STM32G431_Slcan_WeActStudioV2/STM32Cube/libstm32cube.a(stm32g4xx_hal_rcc_ex.o) (HAL_PWR_EnableBkUpAccess)
/usr/lib/gcc/arm-none-eabi/13.2.1/../../../arm-none-eabi/lib/thumb/v7e-m/nofp/libc_nano.a(libc_a-sprintf.o)
                              Build_STM32G431_Slcan_WeActStudioV2/can.o (sprintf)
/usr/lib/gcc/arm-none-eabi/13.2.1/../../../arm-none-eabi/lib/thumb/v7e-m/nofp/libc_nano.a(libc_a-strcpy.o)
                              Build_STM32G431_Slcan_WeActStudioV2/can.o (strcpy)
/usr/lib/gcc/arm-none-eabi/13.2.1/../../../arm-none-eabi/lib/thumb/v7e-m/nofp/libc_nano.a(libc_a-impure.o)
                              /usr/lib/gcc/arm-none-eabi/13.2.1/../../../arm-none-eabi/lib/thumb/v7e-m/nofp/libc_nano.a(libc_a-sprintf.o) (_impure_ptr)
/usr/lib/gcc/arm-none-eabi/13.2.1/../../../arm-none-eabi/lib/thumb/v7e-m/nofp/libc_nano.a(libc_a-nano-svfprintf.o)
                              /usr/lib/gcc/arm-none-eabi/13.2.1/../../../arm-none-eabi/lib/thumb/v7e-m/nofp/libc_nano.a(libc_a-sprintf.o) (_svfprintf_r)
/usr/lib/gcc/arm-none-eabi/13.2.1/../../../arm-none-eabi/lib/thumb/v7e-m/nofp/libc_nano.a(libc_a-init.o)
                              /usr/lib/gcc/arm-none-eabi/13.2.1/../../../arm-none-eabi/lib/thumb/v7e-m/nofp/crt0.o (__libc_init_array)
/usr/lib/gcc/arm-none-eabi/13.2.1/../../../arm-none-eabi/lib/thumb/v7e-m/nofp/libc_nano.a(libc_a-strlen.o)
                              Build_STM32G431_Slcan_WeActStudioV2/can.o (strlen)
/usr/lib/gcc/arm-none-eabi/13.2.1/../../../arm-none-eabi/lib/thumb/v7e-m/nofp/libc_nano.a(libc_a-memset.o)
                              /usr/lib/gcc/arm-none-eabi/13.2.1/../../../arm-none-eabi/lib/thumb/v7e-m/nofp/crt0.o (memset)
/usr/lib/gcc/arm-none-eabi/13.2.1/../../../arm-none-eabi/lib/thumb/v7e-m/nofp/libc_nano.a(libc_a-mallocr.o)
                              /usr/lib/gcc/arm-none-eabi/13.2.1/../../../arm-none-eabi/lib/thumb/v7e-m/nofp/libc_nano.a(libc_a-nano-svfprintf.o) (_malloc_r)
/usr/lib/gcc/arm-none-eabi/13.2.1/../../../arm-none-eabi/lib/thumb/v7e-m/nofp/libc_nano.a(libc_a-freer.o)
                              /usr/lib/gcc/arm-none-eabi/13.2.1/../../../arm-none-eabi/lib/thumb/v7e-m/nofp/libc_nano.a(libc_a-nano-svfprintf.o) (_free_r)
/usr/lib/gcc/arm-none-eabi/13.2.1/../../../arm-none-eabi/lib/thumb/v7e-m/nofp/libc_nano.a(libc_a-memmove.o)
                              Build_STM32G431_Slcan_WeActStudioV2/system.o (memmove)
/usr/lib/gcc/arm-none-eabi/13.2.1/../../../arm-none-eabi/lib/thumb/v7e-m/nofp/libc_nano.a(libc_a-memchr.o)
                              /usr/lib/gcc/arm-none-eabi/13.2.1/../../../arm-none-eabi/lib/thumb/v7e-m/nofp/libc_nano.a(libc_a-nano-svfprintf.o) (memchr)
/usr/lib/gcc/arm-none-eabi/13.2.1/../../../arm-none-eabi/lib/thumb/v7e-m/nofp/libc_nano.a(libc_a-memcpy.o)
                              Build_STM32G431_Slcan_WeActStudioV2/Slcan/buffer.o (memcpy)
/usr/lib/gcc/arm-none-eabi/13.2.1/../../../arm-none-eabi/lib/thumb/v7e-m/nofp/libc_nano.a(libc_a-reallocr.o)
                              /usr/lib/gcc/arm-none-eabi/13.2.1/../../../arm-none-eabi/lib/thumb/v7e-m/nofp/libc_nano.a(libc_a-nano-svfprintf.o) (_realloc_r)
/usr/lib/gcc/arm-none-eabi/13.2.1/../../../arm-none-eabi/lib/thumb/v7e-m/nofp/libc_nano.a(libc_a-nano-vfprintf_i.o)
                              /usr/lib/gcc/arm-none-eabi/13.2.1/../../../arm-none-eabi/lib/thumb/v7e-m/nofp/libc_nano.a(libc_a-nano-svfprintf.o) (_printf_i)
/usr/lib/gcc/arm-none-eabi/13.2.1/../../../arm-none-eabi/lib/thumb/v7e-m/nofp/libc_nano.a(libc_a-mlock.o)
                              /usr/lib/gcc/arm-none-eabi/13.2.1/../../../arm-none-eabi/lib/thumb/v7e-m/nofp/libc_nano.a(libc_a-mallocr.o) (__malloc_lock)
/usr/lib/gcc/arm-none-eabi/13.2.1/../../../arm-none-eabi/lib/thumb/v7e-m/nofp/libc_nano.a(libc_a-strncmp.o)
                              Build_STM32G431_Slcan_WeActStudioV2/Slcan/control.o (strncmp)
/usr/lib/gcc/arm-none-eabi/13.2.1/../../../arm-none-eabi/lib/thumb/v7e-m/nofp/libc_nano.a(libc_a-strcmp.o)
                              Build_STM32G431_Slcan_WeActStudioV2/Slcan/control.o (strcmp)
/usr/lib/gcc/arm-none-eabi/13.2.1/../../../arm-none-eabi/lib/thumb/v7e-m/nofp/libc_nano.a(libc_a-exit.o)
                              /usr/lib/gcc/arm-none-eabi/13.2.1/../../../arm-none-eabi/lib/thumb/v7e-m/nofp/crt0.o (exit)
/usr/lib/gcc/arm-none-eabi/13.2.1/../../../arm-none-eabi/lib/thumb/v7e-m/nofp/libc_nano.a(libc_a-atexit.o)
                              /usr/lib/gcc/arm-none-eabi/13.2.1/../../../arm-none-eabi/lib/thumb/v7e-m/nofp/crt0.o (atexit)
/usr/lib/gcc/arm-none-eabi/13.2.1/../../../arm-none-eabi/lib/thumb/v7e-m/nofp/libc_nano.a(libc_a-memcmp.o)
                              Build_STM32G431_Slcan_WeActStudioV2/system.o (memcmp)
/usr/lib/gcc/arm-none-eabi/13.2.1/../../../arm-none-eabi/lib/thumb/v7e-m/nofp/libc_nano.a(libc_a-fini.o)
                              /usr/lib/gcc/arm-none-eabi/13.2.1/../../../arm-none-eabi/lib/thumb/v7e-m/nofp/crt0.o (__libc_fini_array)
/usr/lib/gcc/arm-none-eabi/13.2.1/../../../arm-none-eabi/lib/thumb/v7e-m/nofp/libc_nano.a(libc_a-sbrkr.o)
                              /usr/lib/gcc/arm-none-eabi/13.2.1/../../../arm-none-eabi/lib/thumb/v7e-m/nofp/libc_nano.a(libc_a-mallocr.o) (_sbrk_r)
/usr/lib/gcc/arm-none-eabi/13.2.1/../../../arm-none-eabi/lib/thumb/v7e-m/nofp/libc_nano.a(libc_a-msizer.o)
                              /usr/lib/gcc/arm-none-eabi/13.2.1/../../../arm-none-eabi/lib/thumb/v7e-m/nofp/libc_nano.a(libc_a-reallocr.o) (_malloc_usable_size_r)
/usr/lib/gcc/arm-none-eabi/13.2.1/../../../arm-none-eabi/lib/thumb/v7e-m/nofp/libc_nano.a(libc_a-findfp.o)
                              /usr/lib/gcc/arm-none-eabi/13.2.1/../../../arm-none-eabi/lib/thumb/v7e-m/nofp/libc_nano.a(libc_a-exit.o) (__stdio_exit_handler)
/usr/lib/gcc/arm-none-eabi/13.2.1/../../../arm-none-eabi/lib/thumb/v7e-m/nofp/libc_nano.a(libc_a-fflush.o)
                              /usr/lib/gcc/arm-none-eabi/13.2.1/../../../arm-none-eabi/lib/thumb/v7e-m/nofp/libc_nano.a(libc_a-findfp.o) (_fflush_r)
/usr/lib/gcc/arm-none-eabi/13.2.1/../../../arm-none-eabi/lib/thumb/v7e-m/nofp/libc_nano.a(libc_a-fwalk.o)
                              /usr/lib/gcc/arm-none-eabi/13.2.1/../../../arm-none-eabi/lib/thumb/v7e-m/nofp/libc_nano.a(libc_a-findfp.o) (_fwalk_sglue)
/usr/lib/gcc/arm-none-eabi/13.2.1/../../../arm-none-eabi/lib/thumb/v7e-m/nofp/libc_nano.a(libc_a-__atexit.o)
                              /usr/lib/gcc/arm-none-eabi/13.2.1/../../../arm-none-eabi/lib/thumb/v7e-m/nofp/libc_nano.a(libc_a-atexit.o) (__register_exitproc)
/usr/lib/gcc/arm-none-eabi/13.2.1/../../../arm-none-eabi/lib/thumb/v7e-m/nofp/libc_nano.a(libc_a-reent.o)
                              /usr/lib/gcc/arm-none-eabi/13.2.1/../../../arm-none-eabi/lib/thumb/v7e-m/nofp/libc_nano.a(libc_a-sbrkr.o) (errno)
/usr/lib/gcc/arm-none-eabi/13.2.1/../../../arm-none-eabi/lib/thumb/v7e-m/nofp/libc_nano.a(libc_a-stdio.o)
                              /usr/lib/gcc/arm-none-eabi/13.2.1/../../../arm-none-eabi/lib/thumb/v7e-m/nofp/libc_nano.a(libc_a-findfp.o) (__sread)
/usr/lib/gcc/arm-none-eabi/13.2.1/../../../arm-none-eabi/lib/thumb/v7e-m/nofp/libc_nano.a(libc_a-closer.o)
                              /usr/lib/gcc/arm-none-eabi/13.2.1/../../../arm-none-eabi/lib/thumb/v7e-m/nofp/libc_nano.a(libc_a-stdio.o) (_close_r)
/usr/lib/gcc/arm-none-eabi/13.2.1/../../../arm-none-eabi/lib/thumb/v7e-m/nofp/libc_nano.a(libc_a-__call_atexit.o)
                              /usr/lib/gcc/arm-none-eabi/13.2.1/../../../arm-none-eabi/lib/thumb/v7e-m/nofp/libc_nano.a(libc_a-__atexit.o) (__call_exitprocs)
/usr/lib/gcc/arm-none-eabi/13.2.1/../../../arm-none-eabi/lib/thumb/v7e-m/nofp/libc_nano.a(libc_a-readr.o)
                              /usr/lib/gcc/arm-none-eabi/13.2.1/../../../arm-none-eabi/lib/thumb/v7e-m/nofp/libc_nano.a(libc_a-stdio.o) (_read_r)
/usr/lib/gcc/arm-none-eabi/13.2.1/../../../arm-none-eabi/lib/thumb/v7e-m/nofp/libc_nano.a(libc_a-lseekr.o)
                              /usr/lib/gcc/arm-none-eabi/13.2.1/../../../arm-none-eabi/lib/thumb/v7e-m/nofp/libc_nano.a(libc_a-stdio.o) (_lseek_r)
/usr/lib/gcc/arm-none-eabi/13.2.1/../../../arm-none-eabi/lib/thumb/v7e-m/nofp/libc_nano.a(libc_a-writer.o)
                              /usr/lib/gcc/arm-none-eabi/13.2.1/../../../arm-none-eabi/lib/thumb/v7e-m/nofp/libc_nano.a(libc_a-stdio.o) (_write_r)
/usr/lib/gcc/arm-none-eabi/13.2.1/../../../arm-none-eabi/lib/thumb/v7e-m/nofp/libnosys.a(sbrk.o)
                              /usr/lib/gcc/arm-none-eabi/13.2.1/../../../arm-none-eabi/lib/thumb/v7e-m/nofp/libc_nano.a(libc_a-sbrkr.o) (_sbrk)
/usr/lib/gcc/arm-none-eabi/13.2.1/../../../arm-none-eabi/lib/thumb/v7e-m/nofp/libnosys.a(_exit.o)
                              /usr/lib/gcc/arm-none-eabi/13.2.1/../../../arm-none-eabi/lib/thumb/v7e-m/nofp/libc_nano.a(libc_a-exit.o) (_exit)

Discarded input sections

 .text          0x00000000        0x0 /usr/lib/gcc/arm-none-eabi/13.2.1/thumb/v7e-m/nofp/crti.o
 .data          0x00000000        0x0 /usr/lib/gcc/arm-none-eabi/13.2.1/thumb/v7e-m/nofp/crti.o
 .bss           0x00000000        0x0 /usr/lib/gcc/arm-none-eabi/13.2.1/thumb/v7e-m/nofp/crti.o
 .data          0x00000000        0x4 /usr/lib/gcc/arm-none-eabi/13.2.1/thumb/v7e-m/nofp/crtbegin.o
 .rodata        0x00000000       0x24 /usr/lib/gcc/arm-none-eabi/13.2.1/thumb/v7e-m/nofp/crtbegin.o
 .text          0x00000000       0x70 /usr/lib/gcc/arm-none-eabi/13.2.1/../../../arm-none-eabi/lib/thumb/v7e-m/nofp/crt0.o
 .data          0x00000000        0x0 /usr/lib/gcc/arm-none-eabi/13.2.1/../../../arm-none-eabi/lib/thumb/v7e-m/nofp/crt0.o
 .bss           0x00000000        0x0 /usr/lib/gcc/arm-none-eabi/13.2.1/../../../arm-none-eabi/lib/thumb/v7e-m/nofp/crt0.o
 .ARM.extab     0x00000000        0x0 /usr/lib/gcc/arm-none-eabi/13.2.1/../../../arm-none-eabi/lib/thumb/v7e-m/nofp/crt0.o
 .ARM.exidx     0x00000000       0x10 /usr/lib/gcc/arm-none-eabi/13.2.1/../../../arm-none-eabi/lib/thumb/v7e-m/nofp/crt0.o
 .debug_line    0x00000000       0x75 /usr/lib/gcc/arm-none-eabi/13.2.1/../../../arm-none-eabi/lib/thumb/v7e-m/nofp/crt0.o
 .debug_line_str
                0x00000000       0x7f /usr/lib/gcc/arm-none-eabi/13.2.1/../../../arm-none-eabi/lib/thumb/v7e-m/nofp/crt0.o
 .debug_info    0x00000000       0x24 /usr/lib/gcc/arm-none-eabi/13.2.1/../../../arm-none-eabi/lib/thumb/v7e-m/nofp/crt0.o
 .debug_abbrev  0x00000000       0x14 /usr/lib/gcc/arm-none-eabi/13.2.1/../../../arm-none-eabi/lib/thumb/v7e-m/nofp/crt0.o
 .debug_aranges
                0x00000000       0x20 /usr/lib/gcc/arm-none-eabi/13.2.1/../../../arm-none-eabi/lib/thumb/v7e-m/nofp/crt0.o
 .debug_str     0x00000000       0x8b /usr/lib/gcc/arm-none-eabi/13.2.1/../../../arm-none-eabi/lib/thumb/v7e-m/nofp/crt0.o
 .ARM.attributes
                0x00000000       0x1c /usr/lib/gcc/arm-none-eabi/13.2.1/../../../arm-none-eabi/lib/thumb/v7e-m/nofp/crt0.o
 .text          0x00000000        0x0 Build_STM32G431_Slcan_WeActStudioV2/main.o
 .data          0x00000000        0x0 Build_STM32G431_Slcan_WeActStudioV2/main.o
 .bss           0x00000000        0x0 Build_STM32G431_Slcan_WeActStudioV2/main.o
 .text._close   0x00000000        0x4 Build_STM32G431_Slcan_WeActStudioV2/main.o
 .text._lseek   0x00000000        0x4 Build_STM32G431_Slcan_WeActStudioV2/main.o
 .text._read    0x00000000        0x4 Build_STM32G431_Slcan_WeActStudioV2/main.o
 .text._write   0x00000000        0x4 Build_STM32G431_Slcan_WeActStudioV2/main.o
 .text          0x00000000        0x0 Build_STM32G431_Slcan_WeActStudioV2/system_STM32G4xx.o
 .data          0x00000000        0x0 Build_STM32G431_Slcan_WeActStudioV2/system_STM32G4xx.o
 .bss           0x00000000        0x0 Build_STM32G431_Slcan_WeActStudioV2/system_STM32G4xx.o
 .text.SystemCoreClockUpdate
                0x00000000       0x6c Build_STM32G431_Slcan_WeActStudioV2/system_STM32G4xx.o
 .text          0x00000000        0x0 Build_STM32G431_Slcan_WeActStudioV2/system.o
 .data          0x00000000        0x0 Build_STM32G431_Slcan_WeActStudioV2/system.o
 .bss           0x00000000        0x0 Build_STM32G431_Slcan_WeActStudioV2/system.o
 .text._close   0x00000000        0x4 Build_STM32G431_Slcan_WeActStudioV2/system.o
 .text._lseek   0x00000000        0x4 Build_STM32G431_Slcan_WeActStudioV2/system.o
 .text._read    0x00000000        0x4 Build_STM32G431_Slcan_WeActStudioV2/system.o
 .text._write   0x00000000        0x4 Build_STM32G431_Slcan_WeActStudioV2/system.o
 .text.system_get_timestamp
                0x00000000       0x18 Build_STM32G431_Slcan_WeActStudioV2/system.o
 .text          0x00000000        0x0 Build_STM32G431_Slcan_WeActStudioV2/interrupts.o
 .data          0x00000000        0x0 Build_STM32G431_Slcan_WeActStudioV2/interrupts.o
 .bss           0x00000000        0x0 Build_STM32G431_Slcan_WeActStudioV2/interrupts.o
 .text._close   0x00000000        0x4 Build_STM32G431_Slcan_WeActStudioV2/interrupts.o
 .text._lseek   0x00000000        0x4 Build_STM32G431_Slcan_WeActStudioV2/interrupts.o
 .text._read    0x00000000        0x4 Build_STM32G431_Slcan_WeActStudioV2/interrupts.o
 .text._write   0x00000000        0x4 Build_STM32G431_Slcan_WeActStudioV2/interrupts.o
 .text.USB_UCPD1_2_IRQHandler
                0x00000000        0xc Build_STM32G431_Slcan_WeActStudioV2/interrupts.o
 .text.TIM16_FDCAN_IT0_IRQHandler
                0x00000000       0x10 Build_STM32G431_Slcan_WeActStudioV2/interrupts.o
 .text          0x00000000        0x0 Build_STM32G431_Slcan_WeActStudioV2/can.o
 .data          0x00000000        0x0 Build_STM32G431_Slcan_WeActStudioV2/can.o
 .bss           0x00000000        0x0 Build_STM32G431_Slcan_WeActStudioV2/can.o
 .text._close   0x00000000        0x4 Build_STM32G431_Slcan_WeActStudioV2/can.o
 .text._lseek   0x00000000        0x4 Build_STM32G431_Slcan_WeActStudioV2/can.o
 .text._read    0x00000000        0x4 Build_STM32G431_Slcan_WeActStudioV2/can.o
 .text._write   0x00000000        0x4 Build_STM32G431_Slcan_WeActStudioV2/can.o
 .text.can_reset
                0x00000000       0x3c Build_STM32G431_Slcan_WeActStudioV2/can.o
 .text.can_apply_host_filters
                0x00000000       0x34 Build_STM32G431_Slcan_WeActStudioV2/can.o
 .text.can_get_termination
                0x00000000       0x2c Build_STM32G431_Slcan_WeActStudioV2/can.o
 .text.can_using_BRS
                0x00000000       0x7c Build_STM32G431_Slcan_WeActStudioV2/can.o
 .text.can_getBitrate
                0x00000000       0x20 Build_STM32G431_Slcan_WeActStudioV2/can.o
 .text.can_calc_bit_count_in_frame
                0x00000000       0xb0 Build_STM32G431_Slcan_WeActStudioV2/can.o
 .text          0x00000000        0x0 Build_STM32G431_Slcan_WeActStudioV2/error.o
 .data          0x00000000        0x0 Build_STM32G431_Slcan_WeActStudioV2/error.o
 .bss           0x00000000        0x0 Build_STM32G431_Slcan_WeActStudioV2/error.o
 .text._close   0x00000000        0x4 Build_STM32G431_Slcan_WeActStudioV2/error.o
 .text._lseek   0x00000000        0x4 Build_STM32G431_Slcan_WeActStudioV2/error.o
 .text._read    0x00000000        0x4 Build_STM32G431_Slcan_WeActStudioV2/error.o
 .text._write   0x00000000        0x4 Build_STM32G431_Slcan_WeActStudioV2/error.o
 .text          0x00000000        0x0 Build_STM32G431_Slcan_WeActStudioV2/led.o
 .data          0x00000000        0x0 Build_STM32G431_Slcan_WeActStudioV2/led.o
 .bss           0x00000000        0x0 Build_STM32G431_Slcan_WeActStudioV2/led.o
 .text._close   0x00000000        0x4 Build_STM32G431_Slcan_WeActStudioV2/led.o
 .text._lseek   0x00000000        0x4 Build_STM32G431_Slcan_WeActStudioV2/led.o
 .text._read    0x00000000        0x4 Build_STM32G431_Slcan_WeActStudioV2/led.o
 .text._write   0x00000000        0x4 Build_STM32G431_Slcan_WeActStudioV2/led.o
 .text.led_set_Rx
                0x00000000       0x24 Build_STM32G431_Slcan_WeActStudioV2/led.o
 .text.led_set_Tx
                0x00000000       0x24 Build_STM32G431_Slcan_WeActStudioV2/led.o
 .text.led_set_Pwr
                0x00000000       0x10 Build_STM32G431_Slcan_WeActStudioV2/led.o
 .text          0x00000000        0x0 Build_STM32G431_Slcan_WeActStudioV2/dfu.o
 .data          0x00000000        0x0 Build_STM32G431_Slcan_WeActStudioV2/dfu.o
 .bss           0x00000000        0x0 Build_STM32G431_Slcan_WeActStudioV2/dfu.o
 .text._close   0x00000000        0x4 Build_STM32G431_Slcan_WeActStudioV2/dfu.o
 .text._lseek   0x00000000        0x4 Build_STM32G431_Slcan_WeActStudioV2/dfu.o
 .text._read    0x00000000        0x4 Build_STM32G431_Slcan_WeActStudioV2/dfu.o
 .text._write   0x00000000        0x4 Build_STM32G431_Slcan_WeActStudioV2/dfu.o
 .text          0x00000000        0x0 Build_STM32G431_Slcan_WeActStudioV2/utils.o
 .data          0x00000000        0x0 Build_STM32G431_Slcan_WeActStudioV2/utils.o
 .bss           0x00000000        0x0 Build_STM32G431_Slcan_WeActStudioV2/utils.o
 .text._close   0x00000000        0x4 Build_STM32G431_Slcan_WeActStudioV2/utils.o
 .text._lseek   0x00000000        0x4 Build_STM32G431_Slcan_WeActStudioV2/utils.o
 .text._read    0x00000000        0x4 Build_STM32G431_Slcan_WeActStudioV2/utils.o
 .text._write   0x00000000        0x4 Build_STM32G431_Slcan_WeActStudioV2/utils.o
 .text.utils_byte_count_to_dlc
                0x00000000       0x3c Build_STM32G431_Slcan_WeActStudioV2/utils.o
 .text.utils_to_hex_value
                0x00000000       0x34 Build_STM32G431_Slcan_WeActStudioV2/utils.o
 .text          0x00000000        0x0 Build_STM32G431_Slcan_WeActStudioV2/usb_ctrlreq.o
 .data          0x00000000        0x0 Build_STM32G431_Slcan_WeActStudioV2/usb_ctrlreq.o
 .bss           0x00000000        0x0 Build_STM32G431_Slcan_WeActStudioV2/usb_ctrlreq.o
 .text.USBD_GetStringDescr
                0x00000000       0x48 Build_STM32G431_Slcan_WeActStudioV2/usb_ctrlreq.o
 .text          0x00000000        0x0 Build_STM32G431_Slcan_WeActStudioV2/usb_ioreq.o
 .data          0x00000000        0x0 Build_STM32G431_Slcan_WeActStudioV2/usb_ioreq.o
 .bss           0x00000000        0x0 Build_STM32G431_Slcan_WeActStudioV2/usb_ioreq.o
 .text.USBD_GetRxCount
                0x00000000        0x4 Build_STM32G431_Slcan_WeActStudioV2/usb_ioreq.o
 .text          0x00000000        0x0 Build_STM32G431_Slcan_WeActStudioV2/usb_core.o
 .data          0x00000000        0x0 Build_STM32G431_Slcan_WeActStudioV2/usb_core.o
 .bss           0x00000000        0x0 Build_STM32G431_Slcan_WeActStudioV2/usb_core.o
 .text.USBD_DeInit
                0x00000000       0x28 Build_STM32G431_Slcan_WeActStudioV2/usb_core.o
 .text.USBD_Stop
                0x00000000       0x1c Build_STM32G431_Slcan_WeActStudioV2/usb_core.o
 .text.USBD_RunTestMode
                0x00000000        0x4 Build_STM32G431_Slcan_WeActStudioV2/usb_core.o
 .text.USBD_LL_IsoINIncomplete
                0x00000000        0x4 Build_STM32G431_Slcan_WeActStudioV2/usb_core.o
 .text.USBD_LL_IsoOUTIncomplete
                0x00000000        0x4 Build_STM32G431_Slcan_WeActStudioV2/usb_core.o
 .text.USBD_LL_DevConnected
                0x00000000        0x4 Build_STM32G431_Slcan_WeActStudioV2/usb_core.o
 .text.USBD_LL_DevDisconnected
                0x00000000       0x20 Build_STM32G431_Slcan_WeActStudioV2/usb_core.o
 .text          0x00000000        0x0 Build_STM32G431_Slcan_WeActStudioV2/usb_lowlevel.o
 .data          0x00000000        0x0 Build_STM32G431_Slcan_WeActStudioV2/usb_lowlevel.o
 .bss           0x00000000        0x0 Build_STM32G431_Slcan_WeActStudioV2/usb_lowlevel.o
 .text._close   0x00000000        0x4 Build_STM32G431_Slcan_WeActStudioV2/usb_lowlevel.o
 .text._lseek   0x00000000        0x4 Build_STM32G431_Slcan_WeActStudioV2/usb_lowlevel.o
 .text._read    0x00000000        0x4 Build_STM32G431_Slcan_WeActStudioV2/usb_lowlevel.o
 .text._write   0x00000000        0x4 Build_STM32G431_Slcan_WeActStudioV2/usb_lowlevel.o
 .text.HAL_PCD_MspDeInit
                0x00000000       0x28 Build_STM32G431_Slcan_WeActStudioV2/usb_lowlevel.o
 .text.HAL_PCD_ISOOUTIncompleteCallback
                0x00000000        0x8 Build_STM32G431_Slcan_WeActStudioV2/usb_lowlevel.o
 .text.HAL_PCD_ISOINIncompleteCallback
                0x00000000        0x8 Build_STM32G431_Slcan_WeActStudioV2/usb_lowlevel.o
 .text.HAL_PCD_ConnectCallback
                0x00000000        0x4 Build_STM32G431_Slcan_WeActStudioV2/usb_lowlevel.o
 .text.HAL_PCD_DisconnectCallback
                0x00000000        0x4 Build_STM32G431_Slcan_WeActStudioV2/usb_lowlevel.o
 .text.USBD_LL_DeInit
                0x00000000       0x18 Build_STM32G431_Slcan_WeActStudioV2/usb_lowlevel.o
 .text.USBD_LL_Stop
                0x00000000       0x18 Build_STM32G431_Slcan_WeActStudioV2/usb_lowlevel.o
 .text.USBD_LL_FlushEP
                0x00000000       0x1c Build_STM32G431_Slcan_WeActStudioV2/usb_lowlevel.o
 .text.ConvStatus
                0x00000000        0xc Build_STM32G431_Slcan_WeActStudioV2/usb_lowlevel.o
 .text          0x00000000       0x14 Build_STM32G431_Slcan_WeActStudioV2/startup_STM32G431.o
 .data          0x00000000        0x0 Build_STM32G431_Slcan_WeActStudioV2/startup_STM32G431.o
 .bss           0x00000000        0x0 Build_STM32G431_Slcan_WeActStudioV2/startup_STM32G431.o
 .text          0x00000000        0x0 Build_STM32G431_Slcan_WeActStudioV2/Slcan/control.o
 .data          0x00000000        0x0 Build_STM32G431_Slcan_WeActStudioV2/Slcan/control.o
 .bss           0x00000000        0x0 Build_STM32G431_Slcan_WeActStudioV2/Slcan/control.o
 .text._close   0x00000000        0x4 Build_STM32G431_Slcan_WeActStudioV2/Slcan/control.o
 .text._lseek   0x00000000        0x4 Build_STM32G431_Slcan_WeActStudioV2/Slcan/control.o
 .text._read    0x00000000        0x4 Build_STM32G431_Slcan_WeActStudioV2/Slcan/control.o
 .text._write   0x00000000        0x4 Build_STM32G431_Slcan_WeActStudioV2/Slcan/control.o
 .text          0x00000000        0x0 Build_STM32G431_Slcan_WeActStudioV2/Slcan/buffer.o
 .data          0x00000000        0x0 Build_STM32G431_Slcan_WeActStudioV2/Slcan/buffer.o
 .bss           0x00000000        0x0 Build_STM32G431_Slcan_WeActStudioV2/Slcan/buffer.o
 .text._close   0x00000000        0x4 Build_STM32G431_Slcan_WeActStudioV2/Slcan/buffer.o
 .text._lseek   0x00000000        0x4 Build_STM32G431_Slcan_WeActStudioV2/Slcan/buffer.o
 .text._read    0x00000000        0x4 Build_STM32G431_Slcan_WeActStudioV2/Slcan/buffer.o
 .text._write   0x00000000        0x4 Build_STM32G431_Slcan_WeActStudioV2/Slcan/buffer.o
 .text          0x00000000        0x0 Build_STM32G431_Slcan_WeActStudioV2/Slcan/usb_class.o
 .data          0x00000000        0x0 Build_STM32G431_Slcan_WeActStudioV2/Slcan/usb_class.o
 .bss           0x00000000        0x0 Build_STM32G431_Slcan_WeActStudioV2/Slcan/usb_class.o
 .text          0x00000000        0x0 Build_STM32G431_Slcan_WeActStudioV2/Slcan/usb_interface.o
 .data          0x00000000        0x0 Build_STM32G431_Slcan_WeActStudioV2/Slcan/usb_interface.o
 .bss           0x00000000        0x0 Build_STM32G431_Slcan_WeActStudioV2/Slcan/usb_interface.o
 .text._close   0x00000000        0x4 Build_STM32G431_Slcan_WeActStudioV2/Slcan/usb_interface.o
 .text._lseek   0x00000000        0x4 Build_STM32G431_Slcan_WeActStudioV2/Slcan/usb_interface.o
 .text._read    0x00000000        0x4 Build_STM32G431_Slcan_WeActStudioV2/Slcan/usb_interface.o
 .text._write   0x00000000        0x4 Build_STM32G431_Slcan_WeActStudioV2/Slcan/usb_interface.o
 .text          0x00000000        0x0 Build_STM32G431_Slcan_WeActStudioV2/STM32Cube/libstm32cube.a(stm32g4xx_hal.o)
 .data          0x00000000        0x0 Build_STM32G431_Slcan_WeActStudioV2/STM32Cube/libstm32cube.a(stm32g4xx_hal.o)
 .bss           0x00000000        0x0 Build_STM32G431_Slcan_WeActStudioV2/STM32Cube/libstm32cube.a(stm32g4xx_hal.o)
 .text.HAL_GetTickPrio
                0x00000000        0xc Build_STM32G431_Slcan_WeActStudioV2/STM32Cube/libstm32cube.a(stm32g4xx_hal.o)
 .text.HAL_SetTickFreq
                0x00000000       0x28 Build_STM32G431_Slcan_WeActStudioV2/STM32Cube/libstm32cube.a(stm32g4xx_hal.o)
 .text.HAL_GetTickFreq
                0x00000000        0xc Build_STM32G431_Slcan_WeActStudioV2/STM32Cube/libstm32cube.a(stm32g4xx_hal.o)
 .text.HAL_SuspendTick
                0x00000000       0x10 Build_STM32G431_Slcan_WeActStudioV2/STM32Cube/libstm32cube.a(stm32g4xx_hal.o)
 .text.HAL_ResumeTick
                0x00000000       0x10 Build_STM32G431_Slcan_WeActStudioV2/STM32Cube/libstm32cube.a(stm32g4xx_hal.o)
 .text.HAL_GetREVID
                0x00000000        0xc Build_STM32G431_Slcan_WeActStudioV2/STM32Cube/libstm32cube.a(stm32g4xx_hal.o)
 .text.HAL_GetUIDw0
                0x00000000        0xc Build_STM32G431_Slcan_WeActStudioV2/STM32Cube/libstm32cube.a(stm32g4xx_hal.o)
 .text.HAL_GetUIDw1
                0x00000000        0xc Build_STM32G431_Slcan_WeActStudioV2/STM32Cube/libstm32cube.a(stm32g4xx_hal.o)
 .text.HAL_GetUIDw2
                0x00000000        0xc Build_STM32G431_Slcan_WeActStudioV2/STM32Cube/libstm32cube.a(stm32g4xx_hal.o)
 .text.HAL_DBGMCU_EnableDBGSleepMode
                0x00000000       0x10 Build_STM32G431_Slcan_WeActStudioV2/STM32Cube/libstm32cube.a(stm32g4xx_hal.o)
 .text.HAL_DBGMCU_DisableDBGSleepMode
                0x00000000       0x10 Build_STM32G431_Slcan_WeActStudioV2/STM32Cube/libstm32cube.a(stm32g4xx_hal.o)
 .text.HAL_DBGMCU_EnableDBGStopMode
                0x00000000       0x10 Build_STM32G431_Slcan_WeActStudioV2/STM32Cube/libstm32cube.a(stm32g4xx_hal.o)
 .text.HAL_DBGMCU_DisableDBGStopMode
                0x00000000       0x10 Build_STM32G431_Slcan_WeActStudioV2/STM32Cube/libstm32cube.a(stm32g4xx_hal.o)
 .text.HAL_DBGMCU_EnableDBGStandbyMode
                0x00000000       0x10 Build_STM32G431_Slcan_WeActStudioV2/STM32Cube/libstm32cube.a(stm32g4xx_hal.o)
 .text.HAL_DBGMCU_DisableDBGStandbyMode
                0x00000000       0x10 Build_STM32G431_Slcan_WeActStudioV2/STM32Cube/libstm32cube.a(stm32g4xx_hal.o)
 .text.HAL_SYSCFG_CCMSRAMErase
                0x00000000       0x18 Build_STM32G431_Slcan_WeActStudioV2/STM32Cube/libstm32cube.a(stm32g4xx_hal.o)
 .text.HAL_SYSCFG_EnableMemorySwappingBank
                0x00000000       0x10 Build_STM32G431_Slcan_WeActStudioV2/STM32Cube/libstm32cube.a(stm32g4xx_hal.o)
 .text.HAL_SYSCFG_DisableMemorySwappingBank
                0x00000000       0x10 Build_STM32G431_Slcan_WeActStudioV2/STM32Cube/libstm32cube.a(stm32g4xx_hal.o)
 .text.HAL_SYSCFG_VREFBUF_VoltageScalingConfig
                0x00000000       0x14 Build_STM32G431_Slcan_WeActStudioV2/STM32Cube/libstm32cube.a(stm32g4xx_hal.o)
 .text.HAL_SYSCFG_VREFBUF_HighImpedanceConfig
                0x00000000       0x14 Build_STM32G431_Slcan_WeActStudioV2/STM32Cube/libstm32cube.a(stm32g4xx_hal.o)
 .text.HAL_SYSCFG_VREFBUF_TrimmingConfig
                0x00000000       0x14 Build_STM32G431_Slcan_WeActStudioV2/STM32Cube/libstm32cube.a(stm32g4xx_hal.o)
 .text.HAL_SYSCFG_EnableVREFBUF
                0x00000000       0x30 Build_STM32G431_Slcan_WeActStudioV2/STM32Cube/libstm32cube.a(stm32g4xx_hal.o)
 .text.HAL_SYSCFG_DisableVREFBUF
                0x00000000       0x10 Build_STM32G431_Slcan_WeActStudioV2/STM32Cube/libstm32cube.a(stm32g4xx_hal.o)
 .text.HAL_SYSCFG_EnableIOSwitchBooster
                0x00000000       0x10 Build_STM32G431_Slcan_WeActStudioV2/STM32Cube/libstm32cube.a(stm32g4xx_hal.o)
 .text.HAL_SYSCFG_DisableIOSwitchBooster
                0x00000000       0x10 Build_STM32G431_Slcan_WeActStudioV2/STM32Cube/libstm32cube.a(stm32g4xx_hal.o)
 .text.HAL_SYSCFG_EnableIOSwitchVDD
                0x00000000       0x10 Build_STM32G431_Slcan_WeActStudioV2/STM32Cube/libstm32cube.a(stm32g4xx_hal.o)
 .text.HAL_SYSCFG_DisableIOSwitchVDD
                0x00000000       0x10 Build_STM32G431_Slcan_WeActStudioV2/STM32Cube/libstm32cube.a(stm32g4xx_hal.o)
 .text.HAL_SYSCFG_CCMSRAM_WriteProtectionEnable
                0x00000000       0x10 Build_STM32G431_Slcan_WeActStudioV2/STM32Cube/libstm32cube.a(stm32g4xx_hal.o)
 .text          0x00000000        0x0 Build_STM32G431_Slcan_WeActStudioV2/STM32Cube/libstm32cube.a(stm32g4xx_hal_cortex.o)
 .data          0x00000000        0x0 Build_STM32G431_Slcan_WeActStudioV2/STM32Cube/libstm32cube.a(stm32g4xx_hal_cortex.o)
 .bss           0x00000000        0x0 Build_STM32G431_Slcan_WeActStudioV2/STM32Cube/libstm32cube.a(stm32g4xx_hal_cortex.o)
 .text.HAL_NVIC_DisableIRQ
                0x00000000       0x24 Build_STM32G431_Slcan_WeActStudioV2/STM32Cube/libstm32cube.a(stm32g4xx_hal_cortex.o)
 .text.HAL_NVIC_SystemReset
                0x00000000       0x24 Build_STM32G431_Slcan_WeActStudioV2/STM32Cube/libstm32cube.a(stm32g4xx_hal_cortex.o)
 .text.HAL_NVIC_GetPriorityGrouping
                0x00000000       0x10 Build_STM32G431_Slcan_WeActStudioV2/STM32Cube/libstm32cube.a(stm32g4xx_hal_cortex.o)
 .text.HAL_NVIC_GetPriority
                0x00000000       0x68 Build_STM32G431_Slcan_WeActStudioV2/STM32Cube/libstm32cube.a(stm32g4xx_hal_cortex.o)
 .text.HAL_NVIC_SetPendingIRQ
                0x00000000       0x1c Build_STM32G431_Slcan_WeActStudioV2/STM32Cube/libstm32cube.a(stm32g4xx_hal_cortex.o)
 .text.HAL_NVIC_GetPendingIRQ
                0x00000000       0x24 Build_STM32G431_Slcan_WeActStudioV2/STM32Cube/libstm32cube.a(stm32g4xx_hal_cortex.o)
 .text.HAL_NVIC_ClearPendingIRQ
                0x00000000       0x1c Build_STM32G431_Slcan_WeActStudioV2/STM32Cube/libstm32cube.a(stm32g4xx_hal_cortex.o)
 .text.HAL_NVIC_GetActive
                0x00000000       0x24 Build_STM32G431_Slcan_WeActStudioV2/STM32Cube/libstm32cube.a(stm32g4xx_hal_cortex.o)
 .text.HAL_SYSTICK_CLKSourceConfig
                0x00000000       0x18 Build_STM32G431_Slcan_WeActStudioV2/STM32Cube/libstm32cube.a(stm32g4xx_hal_cortex.o)
 .text.HAL_MPU_Enable
                0x00000000       0x18 Build_STM32G431_Slcan_WeActStudioV2/STM32Cube/libstm32cube.a(stm32g4xx_hal_cortex.o)
 .text.HAL_MPU_Disable
                0x00000000       0x14 Build_STM32G431_Slcan_WeActStudioV2/STM32Cube/libstm32cube.a(stm32g4xx_hal_cortex.o)
 .text.HAL_MPU_EnableRegion
                0x00000000       0x18 Build_STM32G431_Slcan_WeActStudioV2/STM32Cube/libstm32cube.a(stm32g4xx_hal_cortex.o)
 .text.HAL_MPU_DisableRegion
                0x00000000       0x18 Build_STM32G431_Slcan_WeActStudioV2/STM32Cube/libstm32cube.a(stm32g4xx_hal_cortex.o)
 .text.HAL_MPU_ConfigRegion
                0x00000000       0x60 Build_STM32G431_Slcan_WeActStudioV2/STM32Cube/libstm32cube.a(stm32g4xx_hal_cortex.o)
 .text          0x00000000        0x0 Build_STM32G431_Slcan_WeActStudioV2/STM32Cube/libstm32cube.a(stm32g4xx_hal_fdcan.o)
 .data          0x00000000        0x0 Build_STM32G431_Slcan_WeActStudioV2/STM32Cube/libstm32cube.a(stm32g4xx_hal_fdcan.o)
 .bss           0x00000000        0x0 Build_STM32G431_Slcan_WeActStudioV2/STM32Cube/libstm32cube.a(stm32g4xx_hal_fdcan.o)
 .text.HAL_FDCAN_EnterPowerDownMode
                0x00000000       0x40 Build_STM32G431_Slcan_WeActStudioV2/STM32Cube/libstm32cube.a(stm32g4xx_hal_fdcan.o)
 .text.HAL_FDCAN_ExitPowerDownMode
                0x00000000       0x48 Build_STM32G431_Slcan_WeActStudioV2/STM32Cube/libstm32cube.a(stm32g4xx_hal_fdcan.o)
 .text.HAL_FDCAN_ConfigExtendedIdMask
                0x00000000       0x20 Build_STM32G431_Slcan_WeActStudioV2/STM32Cube/libstm32cube.a(stm32g4xx_hal_fdcan.o)
 .text.HAL_FDCAN_ConfigRxFifoOverwrite
                0x00000000       0x38 Build_STM32G431_Slcan_WeActStudioV2/STM32Cube/libstm32cube.a(stm32g4xx_hal_fdcan.o)
 .text.HAL_FDCAN_ConfigRamWatchdog
                0x00000000       0x28 Build_STM32G431_Slcan_WeActStudioV2/STM32Cube/libstm32cube.a(stm32g4xx_hal_fdcan.o)
 .text.HAL_FDCAN_DisableTimestampCounter
                0x00000000       0x24 Build_STM32G431_Slcan_WeActStudioV2/STM32Cube/libstm32cube.a(stm32g4xx_hal_fdcan.o)
 .text.HAL_FDCAN_GetTimestampCounter
                0x00000000        0x8 Build_STM32G431_Slcan_WeActStudioV2/STM32Cube/libstm32cube.a(stm32g4xx_hal_fdcan.o)
 .text.HAL_FDCAN_ResetTimestampCounter
                0x00000000       0x20 Build_STM32G431_Slcan_WeActStudioV2/STM32Cube/libstm32cube.a(stm32g4xx_hal_fdcan.o)
 .text.HAL_FDCAN_ConfigTimeoutCounter
                0x00000000       0x30 Build_STM32G431_Slcan_WeActStudioV2/STM32Cube/libstm32cube.a(stm32g4xx_hal_fdcan.o)
 .text.HAL_FDCAN_EnableTimeoutCounter
                0x00000000       0x24 Build_STM32G431_Slcan_WeActStudioV2/STM32Cube/libstm32cube.a(stm32g4xx_hal_fdcan.o)
 .text.HAL_FDCAN_DisableTimeoutCounter
                0x00000000       0x24 Build_STM32G431_Slcan_WeActStudioV2/STM32Cube/libstm32cube.a(stm32g4xx_hal_fdcan.o)
 .text.HAL_FDCAN_GetTimeoutCounter
                0x00000000        0x8 Build_STM32G431_Slcan_WeActStudioV2/STM32Cube/libstm32cube.a(stm32g4xx_hal_fdcan.o)
 .text.HAL_FDCAN_ResetTimeoutCounter
                0x00000000       0x1c Build_STM32G431_Slcan_WeActStudioV2/STM32Cube/libstm32cube.a(stm32g4xx_hal_fdcan.o)
 .text.HAL_FDCAN_EnableISOMode
                0x00000000       0x24 Build_STM32G431_Slcan_WeActStudioV2/STM32Cube/libstm32cube.a(stm32g4xx_hal_fdcan.o)
 .text.HAL_FDCAN_DisableISOMode
                0x00000000       0x24 Build_STM32G431_Slcan_WeActStudioV2/STM32Cube/libstm32cube.a(stm32g4xx_hal_fdcan.o)
 .text.HAL_FDCAN_EnableEdgeFiltering
                0x00000000       0x24 Build_STM32G431_Slcan_WeActStudioV2/STM32Cube/libstm32cube.a(stm32g4xx_hal_fdcan.o)
 .text.HAL_FDCAN_DisableEdgeFiltering
                0x00000000       0x24 Build_STM32G431_Slcan_WeActStudioV2/STM32Cube/libstm32cube.a(stm32g4xx_hal_fdcan.o)
 .text.HAL_FDCAN_GetLatestTxFifoQRequestBuffer
                0x00000000        0x4 Build_STM32G431_Slcan_WeActStudioV2/STM32Cube/libstm32cube.a(stm32g4xx_hal_fdcan.o)
 .text.HAL_FDCAN_GetHighPriorityMessageStatus
                0x00000000       0x34 Build_STM32G431_Slcan_WeActStudioV2/STM32Cube/libstm32cube.a(stm32g4xx_hal_fdcan.o)
 .text.HAL_FDCAN_IsTxBufferMessagePending
                0x00000000       0x10 Build_STM32G431_Slcan_WeActStudioV2/STM32Cube/libstm32cube.a(stm32g4xx_hal_fdcan.o)
 .text.HAL_FDCAN_GetRxFifoFillLevel
                0x00000000       0x14 Build_STM32G431_Slcan_WeActStudioV2/STM32Cube/libstm32cube.a(stm32g4xx_hal_fdcan.o)
 .text.HAL_FDCAN_IsRestrictedOperationMode
                0x00000000        0xc Build_STM32G431_Slcan_WeActStudioV2/STM32Cube/libstm32cube.a(stm32g4xx_hal_fdcan.o)
 .text.HAL_FDCAN_ExitRestrictedOperationMode
                0x00000000       0x28 Build_STM32G431_Slcan_WeActStudioV2/STM32Cube/libstm32cube.a(stm32g4xx_hal_fdcan.o)
 .text.HAL_FDCAN_DeactivateNotification
                0x00000000      0x120 Build_STM32G431_Slcan_WeActStudioV2/STM32Cube/libstm32cube.a(stm32g4xx_hal_fdcan.o)
 .text.HAL_FDCAN_TimestampWraparoundCallback
                0x00000000        0x4 Build_STM32G431_Slcan_WeActStudioV2/STM32Cube/libstm32cube.a(stm32g4xx_hal_fdcan.o)
 .text.HAL_FDCAN_GetState
                0x00000000        0x8 Build_STM32G431_Slcan_WeActStudioV2/STM32Cube/libstm32cube.a(stm32g4xx_hal_fdcan.o)
 .text.HAL_FDCAN_GetError
                0x00000000        0x4 Build_STM32G431_Slcan_WeActStudioV2/STM32Cube/libstm32cube.a(stm32g4xx_hal_fdcan.o)
 .text          0x00000000        0x0 Build_STM32G431_Slcan_WeActStudioV2/STM32Cube/libstm32cube.a(stm32g4xx_hal_flash.o)
 .data          0x00000000        0x0 Build_STM32G431_Slcan_WeActStudioV2/STM32Cube/libstm32cube.a(stm32g4xx_hal_flash.o)
 .bss           0x00000000        0x0 Build_STM32G431_Slcan_WeActStudioV2/STM32Cube/libstm32cube.a(stm32g4xx_hal_flash.o)
 .text.HAL_FLASH_Program_IT
                0x00000000      0x13c Build_STM32G431_Slcan_WeActStudioV2/STM32Cube/libstm32cube.a(stm32g4xx_hal_flash.o)
 .text.HAL_FLASH_EndOfOperationCallback
                0x00000000        0x4 Build_STM32G431_Slcan_WeActStudioV2/STM32Cube/libstm32cube.a(stm32g4xx_hal_flash.o)
 .text.HAL_FLASH_OperationErrorCallback
                0x00000000        0x4 Build_STM32G431_Slcan_WeActStudioV2/STM32Cube/libstm32cube.a(stm32g4xx_hal_flash.o)
 .text.HAL_FLASH_IRQHandler
                0x00000000       0xf0 Build_STM32G431_Slcan_WeActStudioV2/STM32Cube/libstm32cube.a(stm32g4xx_hal_flash.o)
 .text.HAL_FLASH_OB_Launch
                0x00000000       0x58 Build_STM32G431_Slcan_WeActStudioV2/STM32Cube/libstm32cube.a(stm32g4xx_hal_flash.o)
 .text.HAL_FLASH_GetError
                0x00000000        0xc Build_STM32G431_Slcan_WeActStudioV2/STM32Cube/libstm32cube.a(stm32g4xx_hal_flash.o)
 .text          0x00000000        0x0 Build_STM32G431_Slcan_WeActStudioV2/STM32Cube/libstm32cube.a(stm32g4xx_hal_flash_ex.o)
 .data          0x00000000        0x0 Build_STM32G431_Slcan_WeActStudioV2/STM32Cube/libstm32cube.a(stm32g4xx_hal_flash_ex.o)
 .bss           0x00000000        0x0 Build_STM32G431_Slcan_WeActStudioV2/STM32Cube/libstm32cube.a(stm32g4xx_hal_flash_ex.o)
 .text.HAL_FLASHEx_Erase_IT
                0x00000000       0xb8 Build_STM32G431_Slcan_WeActStudioV2/STM32Cube/libstm32cube.a(stm32g4xx_hal_flash_ex.o)
 .text.HAL_FLASHEx_EnableSecMemProtection
                0x00000000       0x14 Build_STM32G431_Slcan_WeActStudioV2/STM32Cube/libstm32cube.a(stm32g4xx_hal_flash_ex.o)
 .text.HAL_FLASHEx_EnableDebugger
                0x00000000       0x10 Build_STM32G431_Slcan_WeActStudioV2/STM32Cube/libstm32cube.a(stm32g4xx_hal_flash_ex.o)
 .text.HAL_FLASHEx_DisableDebugger
                0x00000000       0x10 Build_STM32G431_Slcan_WeActStudioV2/STM32Cube/libstm32cube.a(stm32g4xx_hal_flash_ex.o)
 .text.FLASH_PageErase
                0x00000000       0x28 Build_STM32G431_Slcan_WeActStudioV2/STM32Cube/libstm32cube.a(stm32g4xx_hal_flash_ex.o)
 .text          0x00000000        0x0 Build_STM32G431_Slcan_WeActStudioV2/STM32Cube/libstm32cube.a(stm32g4xx_hal_gpio.o)
 .data          0x00000000        0x0 Build_STM32G431_Slcan_WeActStudioV2/STM32Cube/libstm32cube.a(stm32g4xx_hal_gpio.o)
 .bss           0x00000000        0x0 Build_STM32G431_Slcan_WeActStudioV2/STM32Cube/libstm32cube.a(stm32g4xx_hal_gpio.o)
 .text.HAL_GPIO_DeInit
                0x00000000      0x1f4 Build_STM32G431_Slcan_WeActStudioV2/STM32Cube/libstm32cube.a(stm32g4xx_hal_gpio.o)
 .text.HAL_GPIO_ReadPin
                0x00000000        0xc Build_STM32G431_Slcan_WeActStudioV2/STM32Cube/libstm32cube.a(stm32g4xx_hal_gpio.o)
 .text.HAL_GPIO_TogglePin
                0x00000000       0x14 Build_STM32G431_Slcan_WeActStudioV2/STM32Cube/libstm32cube.a(stm32g4xx_hal_gpio.o)
 .text.HAL_GPIO_LockPin
                0x00000000       0x2c Build_STM32G431_Slcan_WeActStudioV2/STM32Cube/libstm32cube.a(stm32g4xx_hal_gpio.o)
 .text.HAL_GPIO_EXTI_Callback
                0x00000000        0x4 Build_STM32G431_Slcan_WeActStudioV2/STM32Cube/libstm32cube.a(stm32g4xx_hal_gpio.o)
 .text.HAL_GPIO_EXTI_IRQHandler
                0x00000000       0x18 Build_STM32G431_Slcan_WeActStudioV2/STM32Cube/libstm32cube.a(stm32g4xx_hal_gpio.o)
 .text          0x00000000        0x0 Build_STM32G431_Slcan_WeActStudioV2/STM32Cube/libstm32cube.a(stm32g4xx_hal_pcd.o)
 .data          0x00000000        0x0 Build_STM32G431_Slcan_WeActStudioV2/STM32Cube/libstm32cube.a(stm32g4xx_hal_pcd.o)
 .bss           0x00000000        0x0 Build_STM32G431_Slcan_WeActStudioV2/STM32Cube/libstm32cube.a(stm32g4xx_hal_pcd.o)
 .text.HAL_PCD_MspInit
                0x00000000        0x4 Build_STM32G431_Slcan_WeActStudioV2/STM32Cube/libstm32cube.a(stm32g4xx_hal_pcd.o)
 .text.HAL_PCD_MspDeInit
                0x00000000        0x4 Build_STM32G431_Slcan_WeActStudioV2/STM32Cube/libstm32cube.a(stm32g4xx_hal_pcd.o)
 .text.HAL_PCD_DeInit
                0x00000000       0x2c Build_STM32G431_Slcan_WeActStudioV2/STM32Cube/libstm32cube.a(stm32g4xx_hal_pcd.o)
 .text.HAL_PCD_Stop
                0x00000000       0x2c Build_STM32G431_Slcan_WeActStudioV2/STM32Cube/libstm32cube.a(stm32g4xx_hal_pcd.o)
 .text.HAL_PCD_DataOutStageCallback
                0x00000000        0x4 Build_STM32G431_Slcan_WeActStudioV2/STM32Cube/libstm32cube.a(stm32g4xx_hal_pcd.o)
 .text.HAL_PCD_DataInStageCallback
                0x00000000        0x4 Build_STM32G431_Slcan_WeActStudioV2/STM32Cube/libstm32cube.a(stm32g4xx_hal_pcd.o)
 .text.HAL_PCD_SetupStageCallback
                0x00000000        0x4 Build_STM32G431_Slcan_WeActStudioV2/STM32Cube/libstm32cube.a(stm32g4xx_hal_pcd.o)
 .text.HAL_PCD_SOFCallback
                0x00000000        0x4 Build_STM32G431_Slcan_WeActStudioV2/STM32Cube/libstm32cube.a(stm32g4xx_hal_pcd.o)
 .text.HAL_PCD_ResetCallback
                0x00000000        0x4 Build_STM32G431_Slcan_WeActStudioV2/STM32Cube/libstm32cube.a(stm32g4xx_hal_pcd.o)
 .text.HAL_PCD_SuspendCallback
                0x00000000        0x4 Build_STM32G431_Slcan_WeActStudioV2/STM32Cube/libstm32cube.a(stm32g4xx_hal_pcd.o)
 .text.HAL_PCD_ResumeCallback
                0x00000000        0x4 Build_STM32G431_Slcan_WeActStudioV2/STM32Cube/libstm32cube.a(stm32g4xx_hal_pcd.o)
 .text.HAL_PCD_ISOOUTIncompleteCallback
                0x00000000        0x4 Build_STM32G431_Slcan_WeActStudioV2/STM32Cube/libstm32cube.a(stm32g4xx_hal_pcd.o)
 .text.HAL_PCD_ISOINIncompleteCallback
                0x00000000        0x4 Build_STM32G431_Slcan_WeActStudioV2/STM32Cube/libstm32cube.a(stm32g4xx_hal_pcd.o)
 .text.HAL_PCD_ConnectCallback
                0x00000000        0x4 Build_STM32G431_Slcan_WeActStudioV2/STM32Cube/libstm32cube.a(stm32g4xx_hal_pcd.o)
 .text.HAL_PCD_DisconnectCallback
                0x00000000        0x4 Build_STM32G431_Slcan_WeActStudioV2/STM32Cube/libstm32cube.a(stm32g4xx_hal_pcd.o)
 .text.HAL_PCD_DevConnect
                0x00000000       0x28 Build_STM32G431_Slcan_WeActStudioV2/STM32Cube/libstm32cube.a(stm32g4xx_hal_pcd.o)
 .text.HAL_PCD_DevDisconnect
                0x00000000       0x28 Build_STM32G431_Slcan_WeActStudioV2/STM32Cube/libstm32cube.a(stm32g4xx_hal_pcd.o)
 .text.HAL_PCD_EP_Abort
                0x00000000       0x1c Build_STM32G431_Slcan_WeActStudioV2/STM32Cube/libstm32cube.a(stm32g4xx_hal_pcd.o)
 .text.HAL_PCD_EP_Flush
                0x00000000       0x38 Build_STM32G431_Slcan_WeActStudioV2/STM32Cube/libstm32cube.a(stm32g4xx_hal_pcd.o)
 .text.HAL_PCD_ActivateRemoteWakeup
                0x00000000        0x8 Build_STM32G431_Slcan_WeActStudioV2/STM32Cube/libstm32cube.a(stm32g4xx_hal_pcd.o)
 .text.HAL_PCD_DeActivateRemoteWakeup
                0x00000000        0x8 Build_STM32G431_Slcan_WeActStudioV2/STM32Cube/libstm32cube.a(stm32g4xx_hal_pcd.o)
 .text.HAL_PCD_GetState
                0x00000000        0x8 Build_STM32G431_Slcan_WeActStudioV2/STM32Cube/libstm32cube.a(stm32g4xx_hal_pcd.o)
 .text          0x00000000        0x0 Build_STM32G431_Slcan_WeActStudioV2/STM32Cube/libstm32cube.a(stm32g4xx_hal_pcd_ex.o)
 .data          0x00000000        0x0 Build_STM32G431_Slcan_WeActStudioV2/STM32Cube/libstm32cube.a(stm32g4xx_hal_pcd_ex.o)
 .bss           0x00000000        0x0 Build_STM32G431_Slcan_WeActStudioV2/STM32Cube/libstm32cube.a(stm32g4xx_hal_pcd_ex.o)
 .text.HAL_PCDEx_ActivateBCD
                0x00000000       0x48 Build_STM32G431_Slcan_WeActStudioV2/STM32Cube/libstm32cube.a(stm32g4xx_hal_pcd_ex.o)
 .text.HAL_PCDEx_DeActivateBCD
                0x00000000       0x1c Build_STM32G431_Slcan_WeActStudioV2/STM32Cube/libstm32cube.a(stm32g4xx_hal_pcd_ex.o)
 .text.HAL_PCDEx_DeActivateLPM
                0x00000000       0x2c Build_STM32G431_Slcan_WeActStudioV2/STM32Cube/libstm32cube.a(stm32g4xx_hal_pcd_ex.o)
 .text.HAL_PCDEx_BCD_Callback
                0x00000000        0x4 Build_STM32G431_Slcan_WeActStudioV2/STM32Cube/libstm32cube.a(stm32g4xx_hal_pcd_ex.o)
 .text.HAL_PCDEx_BCD_VBUSDetect
                0x00000000       0xd0 Build_STM32G431_Slcan_WeActStudioV2/STM32Cube/libstm32cube.a(stm32g4xx_hal_pcd_ex.o)
 .text          0x00000000        0x0 Build_STM32G431_Slcan_WeActStudioV2/STM32Cube/libstm32cube.a(stm32g4xx_hal_pwr_ex.o)
 .data          0x00000000        0x0 Build_STM32G431_Slcan_WeActStudioV2/STM32Cube/libstm32cube.a(stm32g4xx_hal_pwr_ex.o)
 .bss           0x00000000        0x0 Build_STM32G431_Slcan_WeActStudioV2/STM32Cube/libstm32cube.a(stm32g4xx_hal_pwr_ex.o)
 .text.HAL_PWREx_GetVoltageRange
                0x00000000       0x20 Build_STM32G431_Slcan_WeActStudioV2/STM32Cube/libstm32cube.a(stm32g4xx_hal_pwr_ex.o)
 .text.HAL_PWREx_EnableBatteryCharging
                0x00000000       0x1c Build_STM32G431_Slcan_WeActStudioV2/STM32Cube/libstm32cube.a(stm32g4xx_hal_pwr_ex.o)
 .text.HAL_PWREx_DisableBatteryCharging
                0x00000000       0x10 Build_STM32G431_Slcan_WeActStudioV2/STM32Cube/libstm32cube.a(stm32g4xx_hal_pwr_ex.o)
 .text.HAL_PWREx_EnableInternalWakeUpLine
                0x00000000       0x10 Build_STM32G431_Slcan_WeActStudioV2/STM32Cube/libstm32cube.a(stm32g4xx_hal_pwr_ex.o)
 .text.HAL_PWREx_DisableInternalWakeUpLine
                0x00000000       0x10 Build_STM32G431_Slcan_WeActStudioV2/STM32Cube/libstm32cube.a(stm32g4xx_hal_pwr_ex.o)
 .text.HAL_PWREx_EnableGPIOPullUp
                0x00000000       0xac Build_STM32G431_Slcan_WeActStudioV2/STM32Cube/libstm32cube.a(stm32g4xx_hal_pwr_ex.o)
 .text.HAL_PWREx_DisableGPIOPullUp
                0x00000000       0x80 Build_STM32G431_Slcan_WeActStudioV2/STM32Cube/libstm32cube.a(stm32g4xx_hal_pwr_ex.o)
 .text.HAL_PWREx_EnableGPIOPullDown
                0x00000000       0xb0 Build_STM32G431_Slcan_WeActStudioV2/STM32Cube/libstm32cube.a(stm32g4xx_hal_pwr_ex.o)
 .text.HAL_PWREx_DisableGPIOPullDown
                0x00000000       0x7c Build_STM32G431_Slcan_WeActStudioV2/STM32Cube/libstm32cube.a(stm32g4xx_hal_pwr_ex.o)
 .text.HAL_PWREx_EnablePullUpPullDownConfig
                0x00000000       0x10 Build_STM32G431_Slcan_WeActStudioV2/STM32Cube/libstm32cube.a(stm32g4xx_hal_pwr_ex.o)
 .text.HAL_PWREx_DisablePullUpPullDownConfig
                0x00000000       0x10 Build_STM32G431_Slcan_WeActStudioV2/STM32Cube/libstm32cube.a(stm32g4xx_hal_pwr_ex.o)
 .text.HAL_PWREx_EnableSRAM2ContentRetention
                0x00000000       0x10 Build_STM32G431_Slcan_WeActStudioV2/STM32Cube/libstm32cube.a(stm32g4xx_hal_pwr_ex.o)
 .text.HAL_PWREx_DisableSRAM2ContentRetention
                0x00000000       0x10 Build_STM32G431_Slcan_WeActStudioV2/STM32Cube/libstm32cube.a(stm32g4xx_hal_pwr_ex.o)
 .text.HAL_PWREx_EnablePVM1
                0x00000000       0x10 Build_STM32G431_Slcan_WeActStudioV2/STM32Cube/libstm32cube.a(stm32g4xx_hal_pwr_ex.o)
 .text.HAL_PWREx_DisablePVM1
                0x00000000       0x10 Build_STM32G431_Slcan_WeActStudioV2/STM32Cube/libstm32cube.a(stm32g4xx_hal_pwr_ex.o)
 .text.HAL_PWREx_EnablePVM2
                0x00000000       0x10 Build_STM32G431_Slcan_WeActStudioV2/STM32Cube/libstm32cube.a(stm32g4xx_hal_pwr_ex.o)
 .text.HAL_PWREx_DisablePVM2
                0x00000000       0x10 Build_STM32G431_Slcan_WeActStudioV2/STM32Cube/libstm32cube.a(stm32g4xx_hal_pwr_ex.o)
 .text.HAL_PWREx_EnablePVM3
                0x00000000       0x10 Build_STM32G431_Slcan_WeActStudioV2/STM32Cube/libstm32cube.a(stm32g4xx_hal_pwr_ex.o)
 .text.HAL_PWREx_DisablePVM3
                0x00000000       0x10 Build_STM32G431_Slcan_WeActStudioV2/STM32Cube/libstm32cube.a(stm32g4xx_hal_pwr_ex.o)
 .text.HAL_PWREx_EnablePVM4
                0x00000000       0x10 Build_STM32G431_Slcan_WeActStudioV2/STM32Cube/libstm32cube.a(stm32g4xx_hal_pwr_ex.o)
 .text.HAL_PWREx_DisablePVM4
                0x00000000       0x10 Build_STM32G431_Slcan_WeActStudioV2/STM32Cube/libstm32cube.a(stm32g4xx_hal_pwr_ex.o)
 .text.HAL_PWREx_ConfigPVM
                0x00000000      0x194 Build_STM32G431_Slcan_WeActStudioV2/STM32Cube/libstm32cube.a(stm32g4xx_hal_pwr_ex.o)
 .text.HAL_PWREx_EnableLowPowerRunMode
                0x00000000       0x10 Build_STM32G431_Slcan_WeActStudioV2/STM32Cube/libstm32cube.a(stm32g4xx_hal_pwr_ex.o)
 .text.HAL_PWREx_DisableLowPowerRunMode
                0x00000000       0x4c Build_STM32G431_Slcan_WeActStudioV2/STM32Cube/libstm32cube.a(stm32g4xx_hal_pwr_ex.o)
 .text.HAL_PWREx_EnterSTOP0Mode
                0x00000000       0x38 Build_STM32G431_Slcan_WeActStudioV2/STM32Cube/libstm32cube.a(stm32g4xx_hal_pwr_ex.o)
 .text.HAL_PWREx_EnterSTOP1Mode
                0x00000000       0x3c Build_STM32G431_Slcan_WeActStudioV2/STM32Cube/libstm32cube.a(stm32g4xx_hal_pwr_ex.o)
 .text.HAL_PWREx_EnterSHUTDOWNMode
                0x00000000       0x24 Build_STM32G431_Slcan_WeActStudioV2/STM32Cube/libstm32cube.a(stm32g4xx_hal_pwr_ex.o)
 .text.HAL_PWREx_PVM1Callback
                0x00000000        0x4 Build_STM32G431_Slcan_WeActStudioV2/STM32Cube/libstm32cube.a(stm32g4xx_hal_pwr_ex.o)
 .text.HAL_PWREx_PVM2Callback
                0x00000000        0x4 Build_STM32G431_Slcan_WeActStudioV2/STM32Cube/libstm32cube.a(stm32g4xx_hal_pwr_ex.o)
 .text.HAL_PWREx_PVM3Callback
                0x00000000        0x4 Build_STM32G431_Slcan_WeActStudioV2/STM32Cube/libstm32cube.a(stm32g4xx_hal_pwr_ex.o)
 .text.HAL_PWREx_PVM4Callback
                0x00000000        0x4 Build_STM32G431_Slcan_WeActStudioV2/STM32Cube/libstm32cube.a(stm32g4xx_hal_pwr_ex.o)
 .text.HAL_PWREx_PVD_PVM_IRQHandler
                0x00000000       0x64 Build_STM32G431_Slcan_WeActStudioV2/STM32Cube/libstm32cube.a(stm32g4xx_hal_pwr_ex.o)
 .text.HAL_PWREx_EnableUCPDStandbyMode
                0x00000000       0x10 Build_STM32G431_Slcan_WeActStudioV2/STM32Cube/libstm32cube.a(stm32g4xx_hal_pwr_ex.o)
 .text.HAL_PWREx_DisableUCPDStandbyMode
                0x00000000       0x10 Build_STM32G431_Slcan_WeActStudioV2/STM32Cube/libstm32cube.a(stm32g4xx_hal_pwr_ex.o)
 .text.HAL_PWREx_EnableUCPDDeadBattery
                0x00000000       0x10 Build_STM32G431_Slcan_WeActStudioV2/STM32Cube/libstm32cube.a(stm32g4xx_hal_pwr_ex.o)
 .text.HAL_PWREx_DisableUCPDDeadBattery
                0x00000000       0x10 Build_STM32G431_Slcan_WeActStudioV2/STM32Cube/libstm32cube.a(stm32g4xx_hal_pwr_ex.o)
 .text          0x00000000        0x0 Build_STM32G431_Slcan_WeActStudioV2/STM32Cube/libstm32cube.a(stm32g4xx_hal_rcc.o)
 .data          0x00000000        0x0 Build_STM32G431_Slcan_WeActStudioV2/STM32Cube/libstm32cube.a(stm32g4xx_hal_rcc.o)
 .bss           0x00000000        0x0 Build_STM32G431_Slcan_WeActStudioV2/STM32Cube/libstm32cube.a(stm32g4xx_hal_rcc.o)
 .text.HAL_RCC_MCOConfig
                0x00000000       0x54 Build_STM32G431_Slcan_WeActStudioV2/STM32Cube/libstm32cube.a(stm32g4xx_hal_rcc.o)
 .text.HAL_RCC_GetHCLKFreq
                0x00000000        0xc Build_STM32G431_Slcan_WeActStudioV2/STM32Cube/libstm32cube.a(stm32g4xx_hal_rcc.o)
 .text.HAL_RCC_GetOscConfig
                0x00000000       0xa4 Build_STM32G431_Slcan_WeActStudioV2/STM32Cube/libstm32cube.a(stm32g4xx_hal_rcc.o)
 .text.HAL_RCC_GetClockConfig
                0x00000000       0x40 Build_STM32G431_Slcan_WeActStudioV2/STM32Cube/libstm32cube.a(stm32g4xx_hal_rcc.o)
 .text.HAL_RCC_EnableCSS
                0x00000000       0x10 Build_STM32G431_Slcan_WeActStudioV2/STM32Cube/libstm32cube.a(stm32g4xx_hal_rcc.o)
 .text.HAL_RCC_EnableLSECSS
                0x00000000       0x14 Build_STM32G431_Slcan_WeActStudioV2/STM32Cube/libstm32cube.a(stm32g4xx_hal_rcc.o)
 .text.HAL_RCC_DisableLSECSS
                0x00000000       0x14 Build_STM32G431_Slcan_WeActStudioV2/STM32Cube/libstm32cube.a(stm32g4xx_hal_rcc.o)
 .text.HAL_RCC_CSSCallback
                0x00000000        0x4 Build_STM32G431_Slcan_WeActStudioV2/STM32Cube/libstm32cube.a(stm32g4xx_hal_rcc.o)
 .text.HAL_RCC_NMI_IRQHandler
                0x00000000       0x1c Build_STM32G431_Slcan_WeActStudioV2/STM32Cube/libstm32cube.a(stm32g4xx_hal_rcc.o)
 .text          0x00000000        0x0 Build_STM32G431_Slcan_WeActStudioV2/STM32Cube/libstm32cube.a(stm32g4xx_hal_rcc_ex.o)
 .data          0x00000000        0x0 Build_STM32G431_Slcan_WeActStudioV2/STM32Cube/libstm32cube.a(stm32g4xx_hal_rcc_ex.o)
 .bss           0x00000000        0x0 Build_STM32G431_Slcan_WeActStudioV2/STM32Cube/libstm32cube.a(stm32g4xx_hal_rcc_ex.o)
 .text.HAL_RCCEx_GetPeriphCLKConfig
                0x00000000       0xb0 Build_STM32G431_Slcan_WeActStudioV2/STM32Cube/libstm32cube.a(stm32g4xx_hal_rcc_ex.o)
 .text.HAL_RCCEx_EnableLSECSS
                0x00000000       0x14 Build_STM32G431_Slcan_WeActStudioV2/STM32Cube/libstm32cube.a(stm32g4xx_hal_rcc_ex.o)
 .text.HAL_RCCEx_DisableLSECSS
                0x00000000       0x1c Build_STM32G431_Slcan_WeActStudioV2/STM32Cube/libstm32cube.a(stm32g4xx_hal_rcc_ex.o)
 .text.HAL_RCCEx_EnableLSECSS_IT
                0x00000000       0x34 Build_STM32G431_Slcan_WeActStudioV2/STM32Cube/libstm32cube.a(stm32g4xx_hal_rcc_ex.o)
 .text.HAL_RCCEx_LSECSS_Callback
                0x00000000        0x4 Build_STM32G431_Slcan_WeActStudioV2/STM32Cube/libstm32cube.a(stm32g4xx_hal_rcc_ex.o)
 .text.HAL_RCCEx_LSECSS_IRQHandler
                0x00000000       0x1c Build_STM32G431_Slcan_WeActStudioV2/STM32Cube/libstm32cube.a(stm32g4xx_hal_rcc_ex.o)
 .text.HAL_RCCEx_EnableLSCO
                0x00000000       0xb0 Build_STM32G431_Slcan_WeActStudioV2/STM32Cube/libstm32cube.a(stm32g4xx_hal_rcc_ex.o)
 .text.HAL_RCCEx_DisableLSCO
                0x00000000       0x90 Build_STM32G431_Slcan_WeActStudioV2/STM32Cube/libstm32cube.a(stm32g4xx_hal_rcc_ex.o)
 .text.HAL_RCCEx_CRSSoftwareSynchronizationGenerate
                0x00000000       0x10 Build_STM32G431_Slcan_WeActStudioV2/STM32Cube/libstm32cube.a(stm32g4xx_hal_rcc_ex.o)
 .text.HAL_RCCEx_CRSGetSynchronizationInfo
                0x00000000       0x24 Build_STM32G431_Slcan_WeActStudioV2/STM32Cube/libstm32cube.a(stm32g4xx_hal_rcc_ex.o)
 .text.HAL_RCCEx_CRSWaitSynchronization
                0x00000000       0xf0 Build_STM32G431_Slcan_WeActStudioV2/STM32Cube/libstm32cube.a(stm32g4xx_hal_rcc_ex.o)
 .text.HAL_RCCEx_CRS_SyncOkCallback
                0x00000000        0x4 Build_STM32G431_Slcan_WeActStudioV2/STM32Cube/libstm32cube.a(stm32g4xx_hal_rcc_ex.o)
 .text.HAL_RCCEx_CRS_SyncWarnCallback
                0x00000000        0x4 Build_STM32G431_Slcan_WeActStudioV2/STM32Cube/libstm32cube.a(stm32g4xx_hal_rcc_ex.o)
 .text.HAL_RCCEx_CRS_ExpectedSyncCallback
                0x00000000        0x4 Build_STM32G431_Slcan_WeActStudioV2/STM32Cube/libstm32cube.a(stm32g4xx_hal_rcc_ex.o)
 .text.HAL_RCCEx_CRS_ErrorCallback
                0x00000000        0x4 Build_STM32G431_Slcan_WeActStudioV2/STM32Cube/libstm32cube.a(stm32g4xx_hal_rcc_ex.o)
 .text.HAL_RCCEx_CRS_IRQHandler
                0x00000000       0x74 Build_STM32G431_Slcan_WeActStudioV2/STM32Cube/libstm32cube.a(stm32g4xx_hal_rcc_ex.o)
 .text          0x00000000        0x0 Build_STM32G431_Slcan_WeActStudioV2/STM32Cube/libstm32cube.a(stm32g4xx_hal_tim.o)
 .data          0x00000000        0x0 Build_STM32G431_Slcan_WeActStudioV2/STM32Cube/libstm32cube.a(stm32g4xx_hal_tim.o)
 .bss           0x00000000        0x0 Build_STM32G431_Slcan_WeActStudioV2/STM32Cube/libstm32cube.a(stm32g4xx_hal_tim.o)
 .text.TIM_OC1_SetConfig
                0x00000000       0x78 Build_STM32G431_Slcan_WeActStudioV2/STM32Cube/libstm32cube.a(stm32g4xx_hal_tim.o)
 .text.TIM_OC3_SetConfig
                0x00000000       0x80 Build_STM32G431_Slcan_WeActStudioV2/STM32Cube/libstm32cube.a(stm32g4xx_hal_tim.o)
 .text.TIM_OC4_SetConfig
                0x00000000       0x84 Build_STM32G431_Slcan_WeActStudioV2/STM32Cube/libstm32cube.a(stm32g4xx_hal_tim.o)
 .text.HAL_TIM_Base_MspDeInit
                0x00000000        0x4 Build_STM32G431_Slcan_WeActStudioV2/STM32Cube/libstm32cube.a(stm32g4xx_hal_tim.o)
 .text.HAL_TIM_Base_DeInit
                0x00000000       0x68 Build_STM32G431_Slcan_WeActStudioV2/STM32Cube/libstm32cube.a(stm32g4xx_hal_tim.o)
 .text.HAL_TIM_Base_Start
                0x00000000       0x68 Build_STM32G431_Slcan_WeActStudioV2/STM32Cube/libstm32cube.a(stm32g4xx_hal_tim.o)
 .text.HAL_TIM_Base_Stop
                0x00000000       0x28 Build_STM32G431_Slcan_WeActStudioV2/STM32Cube/libstm32cube.a(stm32g4xx_hal_tim.o)
 .text.HAL_TIM_Base_Stop_IT
                0x00000000       0x30 Build_STM32G431_Slcan_WeActStudioV2/STM32Cube/libstm32cube.a(stm32g4xx_hal_tim.o)
 .text.HAL_TIM_Base_Start_DMA
                0x00000000       0xac Build_STM32G431_Slcan_WeActStudioV2/STM32Cube/libstm32cube.a(stm32g4xx_hal_tim.o)
 .text.HAL_TIM_Base_Stop_DMA
                0x00000000       0x3c Build_STM32G431_Slcan_WeActStudioV2/STM32Cube/libstm32cube.a(stm32g4xx_hal_tim.o)
 .text.HAL_TIM_OC_MspInit
                0x00000000        0x4 Build_STM32G431_Slcan_WeActStudioV2/STM32Cube/libstm32cube.a(stm32g4xx_hal_tim.o)
 .text.HAL_TIM_OC_Init
                0x00000000      0x124 Build_STM32G431_Slcan_WeActStudioV2/STM32Cube/libstm32cube.a(stm32g4xx_hal_tim.o)
 .text.HAL_TIM_OC_MspDeInit
                0x00000000        0x4 Build_STM32G431_Slcan_WeActStudioV2/STM32Cube/libstm32cube.a(stm32g4xx_hal_tim.o)
 .text.HAL_TIM_OC_DeInit
                0x00000000       0x68 Build_STM32G431_Slcan_WeActStudioV2/STM32Cube/libstm32cube.a(stm32g4xx_hal_tim.o)
 .text.HAL_TIM_OC_Start
                0x00000000      0x128 Build_STM32G431_Slcan_WeActStudioV2/STM32Cube/libstm32cube.a(stm32g4xx_hal_tim.o)
 .text.HAL_TIM_OC_Stop
                0x00000000       0xe4 Build_STM32G431_Slcan_WeActStudioV2/STM32Cube/libstm32cube.a(stm32g4xx_hal_tim.o)
 .text.HAL_TIM_OC_Start_IT
                0x00000000      0x14c Build_STM32G431_Slcan_WeActStudioV2/STM32Cube/libstm32cube.a(stm32g4xx_hal_tim.o)
 .text.HAL_TIM_OC_Stop_IT
                0x00000000       0xec Build_STM32G431_Slcan_WeActStudioV2/STM32Cube/libstm32cube.a(stm32g4xx_hal_tim.o)
 .text.HAL_TIM_OC_Start_DMA
                0x00000000      0x2a0 Build_STM32G431_Slcan_WeActStudioV2/STM32Cube/libstm32cube.a(stm32g4xx_hal_tim.o)
 .text.HAL_TIM_OC_Stop_DMA
                0x00000000      0x100 Build_STM32G431_Slcan_WeActStudioV2/STM32Cube/libstm32cube.a(stm32g4xx_hal_tim.o)
 .text.HAL_TIM_PWM_MspInit
                0x00000000        0x4 Build_STM32G431_Slcan_WeActStudioV2/STM32Cube/libstm32cube.a(stm32g4xx_hal_tim.o)
 .text.HAL_TIM_PWM_Init
                0x00000000      0x124 Build_STM32G431_Slcan_WeActStudioV2/STM32Cube/libstm32cube.a(stm32g4xx_hal_tim.o)
 .text.HAL_TIM_PWM_MspDeInit
                0x00000000        0x4 Build_STM32G431_Slcan_WeActStudioV2/STM32Cube/libstm32cube.a(stm32g4xx_hal_tim.o)
 .text.HAL_TIM_PWM_DeInit
                0x00000000       0x68 Build_STM32G431_Slcan_WeActStudioV2/STM32Cube/libstm32cube.a(stm32g4xx_hal_tim.o)
 .text.HAL_TIM_PWM_Start
                0x00000000      0x128 Build_STM32G431_Slcan_WeActStudioV2/STM32Cube/libstm32cube.a(stm32g4xx_hal_tim.o)
 .text.HAL_TIM_PWM_Stop
                0x00000000       0xe4 Build_STM32G431_Slcan_WeActStudioV2/STM32Cube/libstm32cube.a(stm32g4xx_hal_tim.o)
 .text.HAL_TIM_PWM_Start_IT
                0x00000000      0x14c Build_STM32G431_Slcan_WeActStudioV2/STM32Cube/libstm32cube.a(stm32g4xx_hal_tim.o)
 .text.HAL_TIM_PWM_Stop_IT
                0x00000000       0xec Build_STM32G431_Slcan_WeActStudioV2/STM32Cube/libstm32cube.a(stm32g4xx_hal_tim.o)
 .text.HAL_TIM_PWM_Start_DMA
                0x00000000      0x2a4 Build_STM32G431_Slcan_WeActStudioV2/STM32Cube/libstm32cube.a(stm32g4xx_hal_tim.o)
 .text.HAL_TIM_PWM_Stop_DMA
                0x00000000      0x100 Build_STM32G431_Slcan_WeActStudioV2/STM32Cube/libstm32cube.a(stm32g4xx_hal_tim.o)
 .text.HAL_TIM_IC_MspInit
                0x00000000        0x4 Build_STM32G431_Slcan_WeActStudioV2/STM32Cube/libstm32cube.a(stm32g4xx_hal_tim.o)
 .text.HAL_TIM_IC_Init
                0x00000000      0x124 Build_STM32G431_Slcan_WeActStudioV2/STM32Cube/libstm32cube.a(stm32g4xx_hal_tim.o)
 .text.HAL_TIM_IC_MspDeInit
                0x00000000        0x4 Build_STM32G431_Slcan_WeActStudioV2/STM32Cube/libstm32cube.a(stm32g4xx_hal_tim.o)
 .text.HAL_TIM_IC_DeInit
                0x00000000       0x68 Build_STM32G431_Slcan_WeActStudioV2/STM32Cube/libstm32cube.a(stm32g4xx_hal_tim.o)
 .text.HAL_TIM_IC_Start
                0x00000000      0x17c Build_STM32G431_Slcan_WeActStudioV2/STM32Cube/libstm32cube.a(stm32g4xx_hal_tim.o)
 .text.HAL_TIM_IC_Stop
                0x00000000       0xa4 Build_STM32G431_Slcan_WeActStudioV2/STM32Cube/libstm32cube.a(stm32g4xx_hal_tim.o)
 .text.HAL_TIM_IC_Start_IT
                0x00000000      0x184 Build_STM32G431_Slcan_WeActStudioV2/STM32Cube/libstm32cube.a(stm32g4xx_hal_tim.o)
 .text.HAL_TIM_IC_Stop_IT
                0x00000000      0x124 Build_STM32G431_Slcan_WeActStudioV2/STM32Cube/libstm32cube.a(stm32g4xx_hal_tim.o)
 .text.HAL_TIM_IC_Start_DMA
                0x00000000      0x280 Build_STM32G431_Slcan_WeActStudioV2/STM32Cube/libstm32cube.a(stm32g4xx_hal_tim.o)
 .text.HAL_TIM_IC_Stop_DMA
                0x00000000      0x114 Build_STM32G431_Slcan_WeActStudioV2/STM32Cube/libstm32cube.a(stm32g4xx_hal_tim.o)
 .text.HAL_TIM_OnePulse_MspInit
                0x00000000        0x4 Build_STM32G431_Slcan_WeActStudioV2/STM32Cube/libstm32cube.a(stm32g4xx_hal_tim.o)
 .text.HAL_TIM_OnePulse_Init
                0x00000000      0x10c Build_STM32G431_Slcan_WeActStudioV2/STM32Cube/libstm32cube.a(stm32g4xx_hal_tim.o)
 .text.HAL_TIM_OnePulse_MspDeInit
                0x00000000        0x4 Build_STM32G431_Slcan_WeActStudioV2/STM32Cube/libstm32cube.a(stm32g4xx_hal_tim.o)
 .text.HAL_TIM_OnePulse_DeInit
                0x00000000       0x50 Build_STM32G431_Slcan_WeActStudioV2/STM32Cube/libstm32cube.a(stm32g4xx_hal_tim.o)
 .text.HAL_TIM_OnePulse_Start
                0x00000000       0xac Build_STM32G431_Slcan_WeActStudioV2/STM32Cube/libstm32cube.a(stm32g4xx_hal_tim.o)
 .text.HAL_TIM_OnePulse_Stop
                0x00000000       0x98 Build_STM32G431_Slcan_WeActStudioV2/STM32Cube/libstm32cube.a(stm32g4xx_hal_tim.o)
 .text.HAL_TIM_OnePulse_Start_IT
                0x00000000       0xbc Build_STM32G431_Slcan_WeActStudioV2/STM32Cube/libstm32cube.a(stm32g4xx_hal_tim.o)
 .text.HAL_TIM_OnePulse_Stop_IT
                0x00000000       0xa8 Build_STM32G431_Slcan_WeActStudioV2/STM32Cube/libstm32cube.a(stm32g4xx_hal_tim.o)
 .text.HAL_TIM_Encoder_MspInit
                0x00000000        0x4 Build_STM32G431_Slcan_WeActStudioV2/STM32Cube/libstm32cube.a(stm32g4xx_hal_tim.o)
 .text.HAL_TIM_Encoder_Init
                0x00000000      0x160 Build_STM32G431_Slcan_WeActStudioV2/STM32Cube/libstm32cube.a(stm32g4xx_hal_tim.o)
 .text.HAL_TIM_Encoder_MspDeInit
                0x00000000        0x4 Build_STM32G431_Slcan_WeActStudioV2/STM32Cube/libstm32cube.a(stm32g4xx_hal_tim.o)
 .text.HAL_TIM_Encoder_DeInit
                0x00000000       0x50 Build_STM32G431_Slcan_WeActStudioV2/STM32Cube/libstm32cube.a(stm32g4xx_hal_tim.o)
 .text.HAL_TIM_Encoder_Start
                0x00000000       0xc4 Build_STM32G431_Slcan_WeActStudioV2/STM32Cube/libstm32cube.a(stm32g4xx_hal_tim.o)
 .text.HAL_TIM_Encoder_Stop
                0x00000000       0xc0 Build_STM32G431_Slcan_WeActStudioV2/STM32Cube/libstm32cube.a(stm32g4xx_hal_tim.o)
 .text.HAL_TIM_Encoder_Start_IT
                0x00000000       0xf0 Build_STM32G431_Slcan_WeActStudioV2/STM32Cube/libstm32cube.a(stm32g4xx_hal_tim.o)
 .text.HAL_TIM_Encoder_Stop_IT
                0x00000000       0xd8 Build_STM32G431_Slcan_WeActStudioV2/STM32Cube/libstm32cube.a(stm32g4xx_hal_tim.o)
 .text.HAL_TIM_Encoder_Start_DMA
                0x00000000      0x1c4 Build_STM32G431_Slcan_WeActStudioV2/STM32Cube/libstm32cube.a(stm32g4xx_hal_tim.o)
 .text.HAL_TIM_Encoder_Stop_DMA
                0x00000000      0x100 Build_STM32G431_Slcan_WeActStudioV2/STM32Cube/libstm32cube.a(stm32g4xx_hal_tim.o)
 .text.HAL_TIM_IC_ConfigChannel
                0x00000000      0x184 Build_STM32G431_Slcan_WeActStudioV2/STM32Cube/libstm32cube.a(stm32g4xx_hal_tim.o)
 .text.HAL_TIM_DMABurst_WriteStart
                0x00000000      0x114 Build_STM32G431_Slcan_WeActStudioV2/STM32Cube/libstm32cube.a(stm32g4xx_hal_tim.o)
 .text.HAL_TIM_DMABurst_MultiWriteStart
                0x00000000       0xf8 Build_STM32G431_Slcan_WeActStudioV2/STM32Cube/libstm32cube.a(stm32g4xx_hal_tim.o)
 .text.HAL_TIM_DMABurst_WriteStop
                0x00000000       0x80 Build_STM32G431_Slcan_WeActStudioV2/STM32Cube/libstm32cube.a(stm32g4xx_hal_tim.o)
 .text.HAL_TIM_DMABurst_ReadStart
                0x00000000      0x114 Build_STM32G431_Slcan_WeActStudioV2/STM32Cube/libstm32cube.a(stm32g4xx_hal_tim.o)
 .text.HAL_TIM_DMABurst_MultiReadStart
                0x00000000       0xf8 Build_STM32G431_Slcan_WeActStudioV2/STM32Cube/libstm32cube.a(stm32g4xx_hal_tim.o)
 .text.HAL_TIM_DMABurst_ReadStop
                0x00000000       0x80 Build_STM32G431_Slcan_WeActStudioV2/STM32Cube/libstm32cube.a(stm32g4xx_hal_tim.o)
 .text.HAL_TIM_GenerateEvent
                0x00000000       0x2c Build_STM32G431_Slcan_WeActStudioV2/STM32Cube/libstm32cube.a(stm32g4xx_hal_tim.o)
 .text.HAL_TIM_ConfigOCrefClear
                0x00000000      0x210 Build_STM32G431_Slcan_WeActStudioV2/STM32Cube/libstm32cube.a(stm32g4xx_hal_tim.o)
 .text.HAL_TIM_ConfigClockSource
                0x00000000      0x1a0 Build_STM32G431_Slcan_WeActStudioV2/STM32Cube/libstm32cube.a(stm32g4xx_hal_tim.o)
 .text.HAL_TIM_ConfigTI1Input
                0x00000000       0x10 Build_STM32G431_Slcan_WeActStudioV2/STM32Cube/libstm32cube.a(stm32g4xx_hal_tim.o)
 .text.HAL_TIM_SlaveConfigSynchro
                0x00000000      0x148 Build_STM32G431_Slcan_WeActStudioV2/STM32Cube/libstm32cube.a(stm32g4xx_hal_tim.o)
 .text.HAL_TIM_SlaveConfigSynchro_IT
                0x00000000      0x148 Build_STM32G431_Slcan_WeActStudioV2/STM32Cube/libstm32cube.a(stm32g4xx_hal_tim.o)
 .text.HAL_TIM_ReadCapturedValue
                0x00000000       0x34 Build_STM32G431_Slcan_WeActStudioV2/STM32Cube/libstm32cube.a(stm32g4xx_hal_tim.o)
 .text.HAL_TIM_PeriodElapsedCallback
                0x00000000        0x4 Build_STM32G431_Slcan_WeActStudioV2/STM32Cube/libstm32cube.a(stm32g4xx_hal_tim.o)
 .text.TIM_DMAPeriodElapsedCplt
                0x00000000       0x18 Build_STM32G431_Slcan_WeActStudioV2/STM32Cube/libstm32cube.a(stm32g4xx_hal_tim.o)
 .text.HAL_TIM_PeriodElapsedHalfCpltCallback
                0x00000000        0x4 Build_STM32G431_Slcan_WeActStudioV2/STM32Cube/libstm32cube.a(stm32g4xx_hal_tim.o)
 .text.TIM_DMAPeriodElapsedHalfCplt
                0x00000000        0xc Build_STM32G431_Slcan_WeActStudioV2/STM32Cube/libstm32cube.a(stm32g4xx_hal_tim.o)
 .text.HAL_TIM_OC_DelayElapsedCallback
                0x00000000        0x4 Build_STM32G431_Slcan_WeActStudioV2/STM32Cube/libstm32cube.a(stm32g4xx_hal_tim.o)
 .text.HAL_TIM_IC_CaptureCallback
                0x00000000        0x4 Build_STM32G431_Slcan_WeActStudioV2/STM32Cube/libstm32cube.a(stm32g4xx_hal_tim.o)
 .text.TIM_DMACaptureCplt
                0x00000000       0x94 Build_STM32G431_Slcan_WeActStudioV2/STM32Cube/libstm32cube.a(stm32g4xx_hal_tim.o)
 .text.HAL_TIM_IC_CaptureHalfCpltCallback
                0x00000000        0x4 Build_STM32G431_Slcan_WeActStudioV2/STM32Cube/libstm32cube.a(stm32g4xx_hal_tim.o)
 .text.TIM_DMACaptureHalfCplt
                0x00000000       0x60 Build_STM32G431_Slcan_WeActStudioV2/STM32Cube/libstm32cube.a(stm32g4xx_hal_tim.o)
 .text.HAL_TIM_PWM_PulseFinishedCallback
                0x00000000        0x4 Build_STM32G431_Slcan_WeActStudioV2/STM32Cube/libstm32cube.a(stm32g4xx_hal_tim.o)
 .text.TIM_DMADelayPulseCplt
                0x00000000       0x84 Build_STM32G431_Slcan_WeActStudioV2/STM32Cube/libstm32cube.a(stm32g4xx_hal_tim.o)
 .text.HAL_TIM_PWM_PulseFinishedHalfCpltCallback
                0x00000000        0x4 Build_STM32G431_Slcan_WeActStudioV2/STM32Cube/libstm32cube.a(stm32g4xx_hal_tim.o)
 .text.TIM_DMADelayPulseHalfCplt
                0x00000000       0x60 Build_STM32G431_Slcan_WeActStudioV2/STM32Cube/libstm32cube.a(stm32g4xx_hal_tim.o)
 .text.HAL_TIM_TriggerCallback
                0x00000000        0x4 Build_STM32G431_Slcan_WeActStudioV2/STM32Cube/libstm32cube.a(stm32g4xx_hal_tim.o)
 .text.HAL_TIM_IRQHandler
                0x00000000      0x1c4 Build_STM32G431_Slcan_WeActStudioV2/STM32Cube/libstm32cube.a(stm32g4xx_hal_tim.o)
 .text.TIM_DMATriggerCplt
                0x00000000       0x18 Build_STM32G431_Slcan_WeActStudioV2/STM32Cube/libstm32cube.a(stm32g4xx_hal_tim.o)
 .text.HAL_TIM_TriggerHalfCpltCallback
                0x00000000        0x4 Build_STM32G431_Slcan_WeActStudioV2/STM32Cube/libstm32cube.a(stm32g4xx_hal_tim.o)
 .text.TIM_DMATriggerHalfCplt
                0x00000000        0xc Build_STM32G431_Slcan_WeActStudioV2/STM32Cube/libstm32cube.a(stm32g4xx_hal_tim.o)
 .text.HAL_TIM_ErrorCallback
                0x00000000        0x4 Build_STM32G431_Slcan_WeActStudioV2/STM32Cube/libstm32cube.a(stm32g4xx_hal_tim.o)
 .text.TIM_DMAError
                0x00000000       0x84 Build_STM32G431_Slcan_WeActStudioV2/STM32Cube/libstm32cube.a(stm32g4xx_hal_tim.o)
 .text.HAL_TIM_Base_GetState
                0x00000000        0x8 Build_STM32G431_Slcan_WeActStudioV2/STM32Cube/libstm32cube.a(stm32g4xx_hal_tim.o)
 .text.HAL_TIM_OC_GetState
                0x00000000        0x8 Build_STM32G431_Slcan_WeActStudioV2/STM32Cube/libstm32cube.a(stm32g4xx_hal_tim.o)
 .text.HAL_TIM_PWM_GetState
                0x00000000        0x8 Build_STM32G431_Slcan_WeActStudioV2/STM32Cube/libstm32cube.a(stm32g4xx_hal_tim.o)
 .text.HAL_TIM_IC_GetState
                0x00000000        0x8 Build_STM32G431_Slcan_WeActStudioV2/STM32Cube/libstm32cube.a(stm32g4xx_hal_tim.o)
 .text.HAL_TIM_OnePulse_GetState
                0x00000000        0x8 Build_STM32G431_Slcan_WeActStudioV2/STM32Cube/libstm32cube.a(stm32g4xx_hal_tim.o)
 .text.HAL_TIM_Encoder_GetState
                0x00000000        0x8 Build_STM32G431_Slcan_WeActStudioV2/STM32Cube/libstm32cube.a(stm32g4xx_hal_tim.o)
 .text.HAL_TIM_GetActiveChannel
                0x00000000        0x4 Build_STM32G431_Slcan_WeActStudioV2/STM32Cube/libstm32cube.a(stm32g4xx_hal_tim.o)
 .text.HAL_TIM_GetChannelState
                0x00000000       0x4c Build_STM32G431_Slcan_WeActStudioV2/STM32Cube/libstm32cube.a(stm32g4xx_hal_tim.o)
 .text.HAL_TIM_DMABurstState
                0x00000000        0x8 Build_STM32G431_Slcan_WeActStudioV2/STM32Cube/libstm32cube.a(stm32g4xx_hal_tim.o)
 .text.TIM_Base_SetConfig
                0x00000000       0xc8 Build_STM32G431_Slcan_WeActStudioV2/STM32Cube/libstm32cube.a(stm32g4xx_hal_tim.o)
 .text.TIM_OC2_SetConfig
                0x00000000       0x84 Build_STM32G431_Slcan_WeActStudioV2/STM32Cube/libstm32cube.a(stm32g4xx_hal_tim.o)
 .text.HAL_TIM_OC_ConfigChannel
                0x00000000      0x12c Build_STM32G431_Slcan_WeActStudioV2/STM32Cube/libstm32cube.a(stm32g4xx_hal_tim.o)
 .text.HAL_TIM_PWM_ConfigChannel
                0x00000000      0x1cc Build_STM32G431_Slcan_WeActStudioV2/STM32Cube/libstm32cube.a(stm32g4xx_hal_tim.o)
 .text.HAL_TIM_OnePulse_ConfigChannel
                0x00000000      0x158 Build_STM32G431_Slcan_WeActStudioV2/STM32Cube/libstm32cube.a(stm32g4xx_hal_tim.o)
 .text.TIM_TI1_SetConfig
                0x00000000       0x68 Build_STM32G431_Slcan_WeActStudioV2/STM32Cube/libstm32cube.a(stm32g4xx_hal_tim.o)
 .text.TIM_ETR_SetConfig
                0x00000000       0x18 Build_STM32G431_Slcan_WeActStudioV2/STM32Cube/libstm32cube.a(stm32g4xx_hal_tim.o)
 .text.TIM_CCxChannelCmd
                0x00000000       0x20 Build_STM32G431_Slcan_WeActStudioV2/STM32Cube/libstm32cube.a(stm32g4xx_hal_tim.o)
 .text          0x00000000        0x0 Build_STM32G431_Slcan_WeActStudioV2/STM32Cube/libstm32cube.a(stm32g4xx_hal_tim_ex.o)
 .data          0x00000000        0x0 Build_STM32G431_Slcan_WeActStudioV2/STM32Cube/libstm32cube.a(stm32g4xx_hal_tim_ex.o)
 .bss           0x00000000        0x0 Build_STM32G431_Slcan_WeActStudioV2/STM32Cube/libstm32cube.a(stm32g4xx_hal_tim_ex.o)
 .text.TIM_DMAErrorCCxN
                0x00000000       0x80 Build_STM32G431_Slcan_WeActStudioV2/STM32Cube/libstm32cube.a(stm32g4xx_hal_tim_ex.o)
 .text.TIM_DMADelayPulseNCplt
                0x00000000       0x84 Build_STM32G431_Slcan_WeActStudioV2/STM32Cube/libstm32cube.a(stm32g4xx_hal_tim_ex.o)
 .text.HAL_TIMEx_HallSensor_MspInit
                0x00000000        0x4 Build_STM32G431_Slcan_WeActStudioV2/STM32Cube/libstm32cube.a(stm32g4xx_hal_tim_ex.o)
 .text.HAL_TIMEx_HallSensor_Init
                0x00000000       0xd4 Build_STM32G431_Slcan_WeActStudioV2/STM32Cube/libstm32cube.a(stm32g4xx_hal_tim_ex.o)
 .text.HAL_TIMEx_HallSensor_MspDeInit
                0x00000000        0x4 Build_STM32G431_Slcan_WeActStudioV2/STM32Cube/libstm32cube.a(stm32g4xx_hal_tim_ex.o)
 .text.HAL_TIMEx_HallSensor_DeInit
                0x00000000       0x50 Build_STM32G431_Slcan_WeActStudioV2/STM32Cube/libstm32cube.a(stm32g4xx_hal_tim_ex.o)
 .text.HAL_TIMEx_HallSensor_Start
                0x00000000       0xa4 Build_STM32G431_Slcan_WeActStudioV2/STM32Cube/libstm32cube.a(stm32g4xx_hal_tim_ex.o)
 .text.HAL_TIMEx_HallSensor_Stop
                0x00000000       0x44 Build_STM32G431_Slcan_WeActStudioV2/STM32Cube/libstm32cube.a(stm32g4xx_hal_tim_ex.o)
 .text.HAL_TIMEx_HallSensor_Start_IT
                0x00000000       0xac Build_STM32G431_Slcan_WeActStudioV2/STM32Cube/libstm32cube.a(stm32g4xx_hal_tim_ex.o)
 .text.HAL_TIMEx_HallSensor_Stop_IT
                0x00000000       0x4c Build_STM32G431_Slcan_WeActStudioV2/STM32Cube/libstm32cube.a(stm32g4xx_hal_tim_ex.o)
 .text.HAL_TIMEx_HallSensor_Start_DMA
                0x00000000       0xd8 Build_STM32G431_Slcan_WeActStudioV2/STM32Cube/libstm32cube.a(stm32g4xx_hal_tim_ex.o)
 .text.HAL_TIMEx_HallSensor_Stop_DMA
                0x00000000       0x4c Build_STM32G431_Slcan_WeActStudioV2/STM32Cube/libstm32cube.a(stm32g4xx_hal_tim_ex.o)
 .text.HAL_TIMEx_OCN_Start
                0x00000000       0xc0 Build_STM32G431_Slcan_WeActStudioV2/STM32Cube/libstm32cube.a(stm32g4xx_hal_tim_ex.o)
 .text.HAL_TIMEx_OCN_Stop
                0x00000000       0x88 Build_STM32G431_Slcan_WeActStudioV2/STM32Cube/libstm32cube.a(stm32g4xx_hal_tim_ex.o)
 .text.HAL_TIMEx_OCN_Start_IT
                0x00000000       0xf0 Build_STM32G431_Slcan_WeActStudioV2/STM32Cube/libstm32cube.a(stm32g4xx_hal_tim_ex.o)
 .text.HAL_TIMEx_OCN_Stop_IT
                0x00000000       0xd4 Build_STM32G431_Slcan_WeActStudioV2/STM32Cube/libstm32cube.a(stm32g4xx_hal_tim_ex.o)
 .text.HAL_TIMEx_OCN_Start_DMA
                0x00000000      0x1ac Build_STM32G431_Slcan_WeActStudioV2/STM32Cube/libstm32cube.a(stm32g4xx_hal_tim_ex.o)
 .text.HAL_TIMEx_OCN_Stop_DMA
                0x00000000       0xd4 Build_STM32G431_Slcan_WeActStudioV2/STM32Cube/libstm32cube.a(stm32g4xx_hal_tim_ex.o)
 .text.HAL_TIMEx_PWMN_Start
                0x00000000       0xc0 Build_STM32G431_Slcan_WeActStudioV2/STM32Cube/libstm32cube.a(stm32g4xx_hal_tim_ex.o)
 .text.HAL_TIMEx_PWMN_Stop
                0x00000000       0x88 Build_STM32G431_Slcan_WeActStudioV2/STM32Cube/libstm32cube.a(stm32g4xx_hal_tim_ex.o)
 .text.HAL_TIMEx_PWMN_Start_IT
                0x00000000       0xf0 Build_STM32G431_Slcan_WeActStudioV2/STM32Cube/libstm32cube.a(stm32g4xx_hal_tim_ex.o)
 .text.HAL_TIMEx_PWMN_Stop_IT
                0x00000000       0xd4 Build_STM32G431_Slcan_WeActStudioV2/STM32Cube/libstm32cube.a(stm32g4xx_hal_tim_ex.o)
 .text.HAL_TIMEx_PWMN_Start_DMA
                0x00000000      0x1ac Build_STM32G431_Slcan_WeActStudioV2/STM32Cube/libstm32cube.a(stm32g4xx_hal_tim_ex.o)
 .text.HAL_TIMEx_PWMN_Stop_DMA
                0x00000000       0xd4 Build_STM32G431_Slcan_WeActStudioV2/STM32Cube/libstm32cube.a(stm32g4xx_hal_tim_ex.o)
 .text.HAL_TIMEx_OnePulseN_Start
                0x00000000       0x84 Build_STM32G431_Slcan_WeActStudioV2/STM32Cube/libstm32cube.a(stm32g4xx_hal_tim_ex.o)
 .text.HAL_TIMEx_OnePulseN_Stop
                0x00000000       0x7c Build_STM32G431_Slcan_WeActStudioV2/STM32Cube/libstm32cube.a(stm32g4xx_hal_tim_ex.o)
 .text.HAL_TIMEx_OnePulseN_Start_IT
                0x00000000       0x94 Build_STM32G431_Slcan_WeActStudioV2/STM32Cube/libstm32cube.a(stm32g4xx_hal_tim_ex.o)
 .text.HAL_TIMEx_OnePulseN_Stop_IT
                0x00000000       0x8c Build_STM32G431_Slcan_WeActStudioV2/STM32Cube/libstm32cube.a(stm32g4xx_hal_tim_ex.o)
 .text.HAL_TIMEx_ConfigCommutEvent
                0x00000000       0x9c Build_STM32G431_Slcan_WeActStudioV2/STM32Cube/libstm32cube.a(stm32g4xx_hal_tim_ex.o)
 .text.HAL_TIMEx_ConfigCommutEvent_IT
                0x00000000       0x9c Build_STM32G431_Slcan_WeActStudioV2/STM32Cube/libstm32cube.a(stm32g4xx_hal_tim_ex.o)
 .text.HAL_TIMEx_ConfigCommutEvent_DMA
                0x00000000       0xb8 Build_STM32G431_Slcan_WeActStudioV2/STM32Cube/libstm32cube.a(stm32g4xx_hal_tim_ex.o)
 .text.HAL_TIMEx_MasterConfigSynchronization
                0x00000000       0xa4 Build_STM32G431_Slcan_WeActStudioV2/STM32Cube/libstm32cube.a(stm32g4xx_hal_tim_ex.o)
 .text.HAL_TIMEx_ConfigBreakDeadTime
                0x00000000       0x9c Build_STM32G431_Slcan_WeActStudioV2/STM32Cube/libstm32cube.a(stm32g4xx_hal_tim_ex.o)
 .text.HAL_TIMEx_ConfigBreakInput
                0x00000000       0xb0 Build_STM32G431_Slcan_WeActStudioV2/STM32Cube/libstm32cube.a(stm32g4xx_hal_tim_ex.o)
 .text.HAL_TIMEx_RemapConfig
                0x00000000       0x28 Build_STM32G431_Slcan_WeActStudioV2/STM32Cube/libstm32cube.a(stm32g4xx_hal_tim_ex.o)
 .text.HAL_TIMEx_TISelection
                0x00000000       0xa8 Build_STM32G431_Slcan_WeActStudioV2/STM32Cube/libstm32cube.a(stm32g4xx_hal_tim_ex.o)
 .text.HAL_TIMEx_GroupChannel5
                0x00000000       0x3c Build_STM32G431_Slcan_WeActStudioV2/STM32Cube/libstm32cube.a(stm32g4xx_hal_tim_ex.o)
 .text.HAL_TIMEx_DisarmBreakInput
                0x00000000       0x48 Build_STM32G431_Slcan_WeActStudioV2/STM32Cube/libstm32cube.a(stm32g4xx_hal_tim_ex.o)
 .text.HAL_TIMEx_ReArmBreakInput
                0x00000000       0x6c Build_STM32G431_Slcan_WeActStudioV2/STM32Cube/libstm32cube.a(stm32g4xx_hal_tim_ex.o)
 .text.HAL_TIMEx_DitheringEnable
                0x00000000       0x10 Build_STM32G431_Slcan_WeActStudioV2/STM32Cube/libstm32cube.a(stm32g4xx_hal_tim_ex.o)
 .text.HAL_TIMEx_DitheringDisable
                0x00000000       0x10 Build_STM32G431_Slcan_WeActStudioV2/STM32Cube/libstm32cube.a(stm32g4xx_hal_tim_ex.o)
 .text.HAL_TIMEx_OC_ConfigPulseOnCompare
                0x00000000       0x3c Build_STM32G431_Slcan_WeActStudioV2/STM32Cube/libstm32cube.a(stm32g4xx_hal_tim_ex.o)
 .text.HAL_TIMEx_ConfigSlaveModePreload
                0x00000000       0x10 Build_STM32G431_Slcan_WeActStudioV2/STM32Cube/libstm32cube.a(stm32g4xx_hal_tim_ex.o)
 .text.HAL_TIMEx_EnableSlaveModePreload
                0x00000000       0x10 Build_STM32G431_Slcan_WeActStudioV2/STM32Cube/libstm32cube.a(stm32g4xx_hal_tim_ex.o)
 .text.HAL_TIMEx_DisableSlaveModePreload
                0x00000000       0x10 Build_STM32G431_Slcan_WeActStudioV2/STM32Cube/libstm32cube.a(stm32g4xx_hal_tim_ex.o)
 .text.HAL_TIMEx_EnableDeadTimePreload
                0x00000000       0x10 Build_STM32G431_Slcan_WeActStudioV2/STM32Cube/libstm32cube.a(stm32g4xx_hal_tim_ex.o)
 .text.HAL_TIMEx_DisableDeadTimePreload
                0x00000000       0x10 Build_STM32G431_Slcan_WeActStudioV2/STM32Cube/libstm32cube.a(stm32g4xx_hal_tim_ex.o)
 .text.HAL_TIMEx_ConfigDeadTime
                0x00000000       0x10 Build_STM32G431_Slcan_WeActStudioV2/STM32Cube/libstm32cube.a(stm32g4xx_hal_tim_ex.o)
 .text.HAL_TIMEx_ConfigAsymmetricalDeadTime
                0x00000000       0x10 Build_STM32G431_Slcan_WeActStudioV2/STM32Cube/libstm32cube.a(stm32g4xx_hal_tim_ex.o)
 .text.HAL_TIMEx_EnableAsymmetricalDeadTime
                0x00000000       0x10 Build_STM32G431_Slcan_WeActStudioV2/STM32Cube/libstm32cube.a(stm32g4xx_hal_tim_ex.o)
 .text.HAL_TIMEx_DisableAsymmetricalDeadTime
                0x00000000       0x10 Build_STM32G431_Slcan_WeActStudioV2/STM32Cube/libstm32cube.a(stm32g4xx_hal_tim_ex.o)
 .text.HAL_TIMEx_ConfigEncoderIndex
                0x00000000       0x54 Build_STM32G431_Slcan_WeActStudioV2/STM32Cube/libstm32cube.a(stm32g4xx_hal_tim_ex.o)
 .text.HAL_TIMEx_EnableEncoderIndex
                0x00000000       0x10 Build_STM32G431_Slcan_WeActStudioV2/STM32Cube/libstm32cube.a(stm32g4xx_hal_tim_ex.o)
 .text.HAL_TIMEx_DisableEncoderIndex
                0x00000000       0x10 Build_STM32G431_Slcan_WeActStudioV2/STM32Cube/libstm32cube.a(stm32g4xx_hal_tim_ex.o)
 .text.HAL_TIMEx_EnableEncoderFirstIndex
                0x00000000       0x10 Build_STM32G431_Slcan_WeActStudioV2/STM32Cube/libstm32cube.a(stm32g4xx_hal_tim_ex.o)
 .text.HAL_TIMEx_DisableEncoderFirstIndex
                0x00000000       0x10 Build_STM32G431_Slcan_WeActStudioV2/STM32Cube/libstm32cube.a(stm32g4xx_hal_tim_ex.o)
 .text.HAL_TIMEx_CommutCallback
                0x00000000        0x4 Build_STM32G431_Slcan_WeActStudioV2/STM32Cube/libstm32cube.a(stm32g4xx_hal_tim_ex.o)
 .text.TIMEx_DMACommutationCplt
                0x00000000       0x10 Build_STM32G431_Slcan_WeActStudioV2/STM32Cube/libstm32cube.a(stm32g4xx_hal_tim_ex.o)
 .text.HAL_TIMEx_CommutHalfCpltCallback
                0x00000000        0x4 Build_STM32G431_Slcan_WeActStudioV2/STM32Cube/libstm32cube.a(stm32g4xx_hal_tim_ex.o)
 .text.TIMEx_DMACommutationHalfCplt
                0x00000000       0x10 Build_STM32G431_Slcan_WeActStudioV2/STM32Cube/libstm32cube.a(stm32g4xx_hal_tim_ex.o)
 .text.HAL_TIMEx_BreakCallback
                0x00000000        0x4 Build_STM32G431_Slcan_WeActStudioV2/STM32Cube/libstm32cube.a(stm32g4xx_hal_tim_ex.o)
 .text.HAL_TIMEx_Break2Callback
                0x00000000        0x4 Build_STM32G431_Slcan_WeActStudioV2/STM32Cube/libstm32cube.a(stm32g4xx_hal_tim_ex.o)
 .text.HAL_TIMEx_EncoderIndexCallback
                0x00000000        0x4 Build_STM32G431_Slcan_WeActStudioV2/STM32Cube/libstm32cube.a(stm32g4xx_hal_tim_ex.o)
 .text.HAL_TIMEx_DirectionChangeCallback
                0x00000000        0x4 Build_STM32G431_Slcan_WeActStudioV2/STM32Cube/libstm32cube.a(stm32g4xx_hal_tim_ex.o)
 .text.HAL_TIMEx_IndexErrorCallback
                0x00000000        0x4 Build_STM32G431_Slcan_WeActStudioV2/STM32Cube/libstm32cube.a(stm32g4xx_hal_tim_ex.o)
 .text.HAL_TIMEx_TransitionErrorCallback
                0x00000000        0x4 Build_STM32G431_Slcan_WeActStudioV2/STM32Cube/libstm32cube.a(stm32g4xx_hal_tim_ex.o)
 .text.HAL_TIMEx_HallSensor_GetState
                0x00000000        0x8 Build_STM32G431_Slcan_WeActStudioV2/STM32Cube/libstm32cube.a(stm32g4xx_hal_tim_ex.o)
 .text.HAL_TIMEx_GetChannelNState
                0x00000000       0x28 Build_STM32G431_Slcan_WeActStudioV2/STM32Cube/libstm32cube.a(stm32g4xx_hal_tim_ex.o)
 .rodata.CSWTCH.115
                0x00000000       0x40 Build_STM32G431_Slcan_WeActStudioV2/STM32Cube/libstm32cube.a(stm32g4xx_hal_tim_ex.o)
 .rodata.CSWTCH.114
                0x00000000       0x40 Build_STM32G431_Slcan_WeActStudioV2/STM32Cube/libstm32cube.a(stm32g4xx_hal_tim_ex.o)
 .rodata.CSWTCH.113
                0x00000000       0x40 Build_STM32G431_Slcan_WeActStudioV2/STM32Cube/libstm32cube.a(stm32g4xx_hal_tim_ex.o)
 .rodata.CSWTCH.112
                0x00000000       0x40 Build_STM32G431_Slcan_WeActStudioV2/STM32Cube/libstm32cube.a(stm32g4xx_hal_tim_ex.o)
 .debug_info    0x00000000     0x25b4 Build_STM32G431_Slcan_WeActStudioV2/STM32Cube/libstm32cube.a(stm32g4xx_hal_tim_ex.o)
 .debug_abbrev  0x00000000      0x3ce Build_STM32G431_Slcan_WeActStudioV2/STM32Cube/libstm32cube.a(stm32g4xx_hal_tim_ex.o)
 .debug_loclists
                0x00000000     0x1a08 Build_STM32G431_Slcan_WeActStudioV2/STM32Cube/libstm32cube.a(stm32g4xx_hal_tim_ex.o)
 .debug_aranges
                0x00000000      0x238 Build_STM32G431_Slcan_WeActStudioV2/STM32Cube/libstm32cube.a(stm32g4xx_hal_tim_ex.o)
 .debug_rnglists
                0x00000000      0x232 Build_STM32G431_Slcan_WeActStudioV2/STM32Cube/libstm32cube.a(stm32g4xx_hal_tim_ex.o)
 .debug_line    0x00000000     0x1fa9 Build_STM32G431_Slcan_WeActStudioV2/STM32Cube/libstm32cube.a(stm32g4xx_hal_tim_ex.o)
 .debug_str     0x00000000     0x14cc Build_STM32G431_Slcan_WeActStudioV2/STM32Cube/libstm32cube.a(stm32g4xx_hal_tim_ex.o)
 .comment       0x00000000       0x27 Build_STM32G431_Slcan_WeActStudioV2/STM32Cube/libstm32cube.a(stm32g4xx_hal_tim_ex.o)
 .debug_frame   0x00000000      0x648 Build_STM32G431_Slcan_WeActStudioV2/STM32Cube/libstm32cube.a(stm32g4xx_hal_tim_ex.o)
 .ARM.attributes
                0x00000000       0x2e Build_STM32G431_Slcan_WeActStudioV2/STM32Cube/libstm32cube.a(stm32g4xx_hal_tim_ex.o)
 .text          0x00000000        0x0 Build_STM32G431_Slcan_WeActStudioV2/STM32Cube/libstm32cube.a(stm32g4xx_ll_usb.o)
 .data          0x00000000        0x0 Build_STM32G431_Slcan_WeActStudioV2/STM32Cube/libstm32cube.a(stm32g4xx_ll_usb.o)
 .bss           0x00000000        0x0 Build_STM32G431_Slcan_WeActStudioV2/STM32Cube/libstm32cube.a(stm32g4xx_ll_usb.o)
 .text.USB_CoreInit
                0x00000000       0x10 Build_STM32G431_Slcan_WeActStudioV2/STM32Cube/libstm32cube.a(stm32g4xx_ll_usb.o)
 .text.USB_SetCurrentMode
                0x00000000        0x4 Build_STM32G431_Slcan_WeActStudioV2/STM32Cube/libstm32cube.a(stm32g4xx_ll_usb.o)
 .text.USB_FlushTxFifo
                0x00000000        0x4 Build_STM32G431_Slcan_WeActStudioV2/STM32Cube/libstm32cube.a(stm32g4xx_ll_usb.o)
 .text.USB_FlushRxFifo
                0x00000000        0x4 Build_STM32G431_Slcan_WeActStudioV2/STM32Cube/libstm32cube.a(stm32g4xx_ll_usb.o)
 .text.USB_EPStopXfer
                0x00000000       0x80 Build_STM32G431_Slcan_WeActStudioV2/STM32Cube/libstm32cube.a(stm32g4xx_ll_usb.o)
 .text.USB_StopDevice
                0x00000000       0x18 Build_STM32G431_Slcan_WeActStudioV2/STM32Cube/libstm32cube.a(stm32g4xx_ll_usb.o)
 .text.USB_DevDisconnect
                0x00000000       0x14 Build_STM32G431_Slcan_WeActStudioV2/STM32Cube/libstm32cube.a(stm32g4xx_ll_usb.o)
 .text.USB_ActivateRemoteWakeup
                0x00000000       0x14 Build_STM32G431_Slcan_WeActStudioV2/STM32Cube/libstm32cube.a(stm32g4xx_ll_usb.o)
 .text.USB_DeActivateRemoteWakeup
                0x00000000       0x18 Build_STM32G431_Slcan_WeActStudioV2/STM32Cube/libstm32cube.a(stm32g4xx_ll_usb.o)
 .text          0x00000000        0x0 Build_STM32G431_Slcan_WeActStudioV2/STM32Cube/libstm32cube.a(stm32g4xx_hal_dma.o)
 .data          0x00000000        0x0 Build_STM32G431_Slcan_WeActStudioV2/STM32Cube/libstm32cube.a(stm32g4xx_hal_dma.o)
 .bss           0x00000000        0x0 Build_STM32G431_Slcan_WeActStudioV2/STM32Cube/libstm32cube.a(stm32g4xx_hal_dma.o)
 .text.HAL_DMA_Init
                0x00000000      0x124 Build_STM32G431_Slcan_WeActStudioV2/STM32Cube/libstm32cube.a(stm32g4xx_hal_dma.o)
 .text.HAL_DMA_DeInit
                0x00000000       0xf0 Build_STM32G431_Slcan_WeActStudioV2/STM32Cube/libstm32cube.a(stm32g4xx_hal_dma.o)
 .text.HAL_DMA_Start
                0x00000000       0x78 Build_STM32G431_Slcan_WeActStudioV2/STM32Cube/libstm32cube.a(stm32g4xx_hal_dma.o)
 .text.HAL_DMA_Start_IT
                0x00000000       0xb8 Build_STM32G431_Slcan_WeActStudioV2/STM32Cube/libstm32cube.a(stm32g4xx_hal_dma.o)
 .text.HAL_DMA_Abort
                0x00000000       0x74 Build_STM32G431_Slcan_WeActStudioV2/STM32Cube/libstm32cube.a(stm32g4xx_hal_dma.o)
 .text.HAL_DMA_Abort_IT
                0x00000000       0x78 Build_STM32G431_Slcan_WeActStudioV2/STM32Cube/libstm32cube.a(stm32g4xx_hal_dma.o)
 .text.HAL_DMA_PollForTransfer
                0x00000000      0x120 Build_STM32G431_Slcan_WeActStudioV2/STM32Cube/libstm32cube.a(stm32g4xx_hal_dma.o)
 .text.HAL_DMA_IRQHandler
                0x00000000       0x9c Build_STM32G431_Slcan_WeActStudioV2/STM32Cube/libstm32cube.a(stm32g4xx_hal_dma.o)
 .text.HAL_DMA_RegisterCallback
                0x00000000       0x44 Build_STM32G431_Slcan_WeActStudioV2/STM32Cube/libstm32cube.a(stm32g4xx_hal_dma.o)
 .text.HAL_DMA_UnRegisterCallback
                0x00000000       0x60 Build_STM32G431_Slcan_WeActStudioV2/STM32Cube/libstm32cube.a(stm32g4xx_hal_dma.o)
 .text.HAL_DMA_GetState
                0x00000000        0x8 Build_STM32G431_Slcan_WeActStudioV2/STM32Cube/libstm32cube.a(stm32g4xx_hal_dma.o)
 .text.HAL_DMA_GetError
                0x00000000        0x4 Build_STM32G431_Slcan_WeActStudioV2/STM32Cube/libstm32cube.a(stm32g4xx_hal_dma.o)
 .debug_info    0x00000000      0xa52 Build_STM32G431_Slcan_WeActStudioV2/STM32Cube/libstm32cube.a(stm32g4xx_hal_dma.o)
 .debug_abbrev  0x00000000      0x2ad Build_STM32G431_Slcan_WeActStudioV2/STM32Cube/libstm32cube.a(stm32g4xx_hal_dma.o)
 .debug_loclists
                0x00000000      0x66f Build_STM32G431_Slcan_WeActStudioV2/STM32Cube/libstm32cube.a(stm32g4xx_hal_dma.o)
 .debug_aranges
                0x00000000       0x78 Build_STM32G431_Slcan_WeActStudioV2/STM32Cube/libstm32cube.a(stm32g4xx_hal_dma.o)
 .debug_rnglists
                0x00000000       0xb0 Build_STM32G431_Slcan_WeActStudioV2/STM32Cube/libstm32cube.a(stm32g4xx_hal_dma.o)
 .debug_line    0x00000000      0xd25 Build_STM32G431_Slcan_WeActStudioV2/STM32Cube/libstm32cube.a(stm32g4xx_hal_dma.o)
 .debug_str     0x00000000      0x760 Build_STM32G431_Slcan_WeActStudioV2/STM32Cube/libstm32cube.a(stm32g4xx_hal_dma.o)
 .comment       0x00000000       0x27 Build_STM32G431_Slcan_WeActStudioV2/STM32Cube/libstm32cube.a(stm32g4xx_hal_dma.o)
 .debug_frame   0x00000000      0x188 Build_STM32G431_Slcan_WeActStudioV2/STM32Cube/libstm32cube.a(stm32g4xx_hal_dma.o)
 .ARM.attributes
                0x00000000       0x2e Build_STM32G431_Slcan_WeActStudioV2/STM32Cube/libstm32cube.a(stm32g4xx_hal_dma.o)
 .text          0x00000000        0x0 Build_STM32G431_Slcan_WeActStudioV2/STM32Cube/libstm32cube.a(stm32g4xx_hal_pwr.o)
 .data          0x00000000        0x0 Build_STM32G431_Slcan_WeActStudioV2/STM32Cube/libstm32cube.a(stm32g4xx_hal_pwr.o)
 .bss           0x00000000        0x0 Build_STM32G431_Slcan_WeActStudioV2/STM32Cube/libstm32cube.a(stm32g4xx_hal_pwr.o)
 .text.HAL_PWR_DeInit
                0x00000000       0x18 Build_STM32G431_Slcan_WeActStudioV2/STM32Cube/libstm32cube.a(stm32g4xx_hal_pwr.o)
 .text.HAL_PWR_EnableBkUpAccess
                0x00000000       0x10 Build_STM32G431_Slcan_WeActStudioV2/STM32Cube/libstm32cube.a(stm32g4xx_hal_pwr.o)
 .text.HAL_PWR_DisableBkUpAccess
                0x00000000       0x10 Build_STM32G431_Slcan_WeActStudioV2/STM32Cube/libstm32cube.a(stm32g4xx_hal_pwr.o)
 .text.HAL_PWR_ConfigPVD
                0x00000000       0x78 Build_STM32G431_Slcan_WeActStudioV2/STM32Cube/libstm32cube.a(stm32g4xx_hal_pwr.o)
 .text.HAL_PWR_EnablePVD
                0x00000000       0x10 Build_STM32G431_Slcan_WeActStudioV2/STM32Cube/libstm32cube.a(stm32g4xx_hal_pwr.o)
 .text.HAL_PWR_DisablePVD
                0x00000000       0x10 Build_STM32G431_Slcan_WeActStudioV2/STM32Cube/libstm32cube.a(stm32g4xx_hal_pwr.o)
 .text.HAL_PWR_EnableWakeUpPin
                0x00000000       0x20 Build_STM32G431_Slcan_WeActStudioV2/STM32Cube/libstm32cube.a(stm32g4xx_hal_pwr.o)
 .text.HAL_PWR_DisableWakeUpPin
                0x00000000       0x14 Build_STM32G431_Slcan_WeActStudioV2/STM32Cube/libstm32cube.a(stm32g4xx_hal_pwr.o)
 .text.HAL_PWR_EnterSLEEPMode
                0x00000000       0x40 Build_STM32G431_Slcan_WeActStudioV2/STM32Cube/libstm32cube.a(stm32g4xx_hal_pwr.o)
 .text.HAL_PWR_EnterSTOPMode
                0x00000000       0x10 Build_STM32G431_Slcan_WeActStudioV2/STM32Cube/libstm32cube.a(stm32g4xx_hal_pwr.o)
 .text.HAL_PWR_EnterSTANDBYMode
                0x00000000       0x24 Build_STM32G431_Slcan_WeActStudioV2/STM32Cube/libstm32cube.a(stm32g4xx_hal_pwr.o)
 .text.HAL_PWR_EnableSleepOnExit
                0x00000000       0x10 Build_STM32G431_Slcan_WeActStudioV2/STM32Cube/libstm32cube.a(stm32g4xx_hal_pwr.o)
 .text.HAL_PWR_DisableSleepOnExit
                0x00000000       0x10 Build_STM32G431_Slcan_WeActStudioV2/STM32Cube/libstm32cube.a(stm32g4xx_hal_pwr.o)
 .text.HAL_PWR_EnableSEVOnPend
                0x00000000       0x10 Build_STM32G431_Slcan_WeActStudioV2/STM32Cube/libstm32cube.a(stm32g4xx_hal_pwr.o)
 .text.HAL_PWR_DisableSEVOnPend
                0x00000000       0x10 Build_STM32G431_Slcan_WeActStudioV2/STM32Cube/libstm32cube.a(stm32g4xx_hal_pwr.o)
 .text.HAL_PWR_PVDCallback
                0x00000000        0x4 Build_STM32G431_Slcan_WeActStudioV2/STM32Cube/libstm32cube.a(stm32g4xx_hal_pwr.o)
 .debug_info    0x00000000      0x972 Build_STM32G431_Slcan_WeActStudioV2/STM32Cube/libstm32cube.a(stm32g4xx_hal_pwr.o)
 .debug_abbrev  0x00000000      0x1d8 Build_STM32G431_Slcan_WeActStudioV2/STM32Cube/libstm32cube.a(stm32g4xx_hal_pwr.o)
 .debug_loclists
                0x00000000      0x12f Build_STM32G431_Slcan_WeActStudioV2/STM32Cube/libstm32cube.a(stm32g4xx_hal_pwr.o)
 .debug_aranges
                0x00000000       0x98 Build_STM32G431_Slcan_WeActStudioV2/STM32Cube/libstm32cube.a(stm32g4xx_hal_pwr.o)
 .debug_rnglists
                0x00000000       0x6d Build_STM32G431_Slcan_WeActStudioV2/STM32Cube/libstm32cube.a(stm32g4xx_hal_pwr.o)
 .debug_line    0x00000000      0x374 Build_STM32G431_Slcan_WeActStudioV2/STM32Cube/libstm32cube.a(stm32g4xx_hal_pwr.o)
 .debug_str     0x00000000      0x656 Build_STM32G431_Slcan_WeActStudioV2/STM32Cube/libstm32cube.a(stm32g4xx_hal_pwr.o)
 .comment       0x00000000       0x27 Build_STM32G431_Slcan_WeActStudioV2/STM32Cube/libstm32cube.a(stm32g4xx_hal_pwr.o)
 .debug_frame   0x00000000      0x124 Build_STM32G431_Slcan_WeActStudioV2/STM32Cube/libstm32cube.a(stm32g4xx_hal_pwr.o)
 .ARM.attributes
                0x00000000       0x2e Build_STM32G431_Slcan_WeActStudioV2/STM32Cube/libstm32cube.a(stm32g4xx_hal_pwr.o)
 .data          0x00000000        0x0 /usr/lib/gcc/arm-none-eabi/13.2.1/../../../arm-none-eabi/lib/thumb/v7e-m/nofp/libc_nano.a(libc_a-sprintf.o)
 .bss           0x00000000        0x0 /usr/lib/gcc/arm-none-eabi/13.2.1/../../../arm-none-eabi/lib/thumb/v7e-m/nofp/libc_nano.a(libc_a-sprintf.o)
 .data          0x00000000        0x0 /usr/lib/gcc/arm-none-eabi/13.2.1/../../../arm-none-eabi/lib/thumb/v7e-m/nofp/libc_nano.a(libc_a-strcpy.o)
 .bss           0x00000000        0x0 /usr/lib/gcc/arm-none-eabi/13.2.1/../../../arm-none-eabi/lib/thumb/v7e-m/nofp/libc_nano.a(libc_a-strcpy.o)
 .text          0x00000000        0x0 /usr/lib/gcc/arm-none-eabi/13.2.1/../../../arm-none-eabi/lib/thumb/v7e-m/nofp/libc_nano.a(libc_a-impure.o)
 .bss           0x00000000        0x0 /usr/lib/gcc/arm-none-eabi/13.2.1/../../../arm-none-eabi/lib/thumb/v7e-m/nofp/libc_nano.a(libc_a-impure.o)
 .data          0x00000000        0x0 /usr/lib/gcc/arm-none-eabi/13.2.1/../../../arm-none-eabi/lib/thumb/v7e-m/nofp/libc_nano.a(libc_a-nano-svfprintf.o)
 .bss           0x00000000        0x0 /usr/lib/gcc/arm-none-eabi/13.2.1/../../../arm-none-eabi/lib/thumb/v7e-m/nofp/libc_nano.a(libc_a-nano-svfprintf.o)
 .data          0x00000000        0x0 /usr/lib/gcc/arm-none-eabi/13.2.1/../../../arm-none-eabi/lib/thumb/v7e-m/nofp/libc_nano.a(libc_a-init.o)
 .bss           0x00000000        0x0 /usr/lib/gcc/arm-none-eabi/13.2.1/../../../arm-none-eabi/lib/thumb/v7e-m/nofp/libc_nano.a(libc_a-init.o)
 .data          0x00000000        0x0 /usr/lib/gcc/arm-none-eabi/13.2.1/../../../arm-none-eabi/lib/thumb/v7e-m/nofp/libc_nano.a(libc_a-strlen.o)
 .bss           0x00000000        0x0 /usr/lib/gcc/arm-none-eabi/13.2.1/../../../arm-none-eabi/lib/thumb/v7e-m/nofp/libc_nano.a(libc_a-strlen.o)
 .ARM.extab     0x00000000        0x0 /usr/lib/gcc/arm-none-eabi/13.2.1/../../../arm-none-eabi/lib/thumb/v7e-m/nofp/libc_nano.a(libc_a-strlen.o)
 .eh_frame      0x00000000       0x34 /usr/lib/gcc/arm-none-eabi/13.2.1/../../../arm-none-eabi/lib/thumb/v7e-m/nofp/libc_nano.a(libc_a-strlen.o)
 .data          0x00000000        0x0 /usr/lib/gcc/arm-none-eabi/13.2.1/../../../arm-none-eabi/lib/thumb/v7e-m/nofp/libc_nano.a(libc_a-memset.o)
 .bss           0x00000000        0x0 /usr/lib/gcc/arm-none-eabi/13.2.1/../../../arm-none-eabi/lib/thumb/v7e-m/nofp/libc_nano.a(libc_a-memset.o)
 .data          0x00000000        0x0 /usr/lib/gcc/arm-none-eabi/13.2.1/../../../arm-none-eabi/lib/thumb/v7e-m/nofp/libc_nano.a(libc_a-mallocr.o)
 .data          0x00000000        0x0 /usr/lib/gcc/arm-none-eabi/13.2.1/../../../arm-none-eabi/lib/thumb/v7e-m/nofp/libc_nano.a(libc_a-freer.o)
 .bss           0x00000000        0x0 /usr/lib/gcc/arm-none-eabi/13.2.1/../../../arm-none-eabi/lib/thumb/v7e-m/nofp/libc_nano.a(libc_a-freer.o)
 .data          0x00000000        0x0 /usr/lib/gcc/arm-none-eabi/13.2.1/../../../arm-none-eabi/lib/thumb/v7e-m/nofp/libc_nano.a(libc_a-memmove.o)
 .bss           0x00000000        0x0 /usr/lib/gcc/arm-none-eabi/13.2.1/../../../arm-none-eabi/lib/thumb/v7e-m/nofp/libc_nano.a(libc_a-memmove.o)
 .data          0x00000000        0x0 /usr/lib/gcc/arm-none-eabi/13.2.1/../../../arm-none-eabi/lib/thumb/v7e-m/nofp/libc_nano.a(libc_a-memchr.o)
 .bss           0x00000000        0x0 /usr/lib/gcc/arm-none-eabi/13.2.1/../../../arm-none-eabi/lib/thumb/v7e-m/nofp/libc_nano.a(libc_a-memchr.o)
 .ARM.extab     0x00000000        0x0 /usr/lib/gcc/arm-none-eabi/13.2.1/../../../arm-none-eabi/lib/thumb/v7e-m/nofp/libc_nano.a(libc_a-memchr.o)
 .eh_frame      0x00000000       0x50 /usr/lib/gcc/arm-none-eabi/13.2.1/../../../arm-none-eabi/lib/thumb/v7e-m/nofp/libc_nano.a(libc_a-memchr.o)
 .data          0x00000000        0x0 /usr/lib/gcc/arm-none-eabi/13.2.1/../../../arm-none-eabi/lib/thumb/v7e-m/nofp/libc_nano.a(libc_a-memcpy.o)
 .bss           0x00000000        0x0 /usr/lib/gcc/arm-none-eabi/13.2.1/../../../arm-none-eabi/lib/thumb/v7e-m/nofp/libc_nano.a(libc_a-memcpy.o)
 .ARM.extab     0x00000000        0x0 /usr/lib/gcc/arm-none-eabi/13.2.1/../../../arm-none-eabi/lib/thumb/v7e-m/nofp/libc_nano.a(libc_a-memcpy.o)
 .eh_frame      0x00000000       0x2c /usr/lib/gcc/arm-none-eabi/13.2.1/../../../arm-none-eabi/lib/thumb/v7e-m/nofp/libc_nano.a(libc_a-memcpy.o)
 .data          0x00000000        0x0 /usr/lib/gcc/arm-none-eabi/13.2.1/../../../arm-none-eabi/lib/thumb/v7e-m/nofp/libc_nano.a(libc_a-reallocr.o)
 .bss           0x00000000        0x0 /usr/lib/gcc/arm-none-eabi/13.2.1/../../../arm-none-eabi/lib/thumb/v7e-m/nofp/libc_nano.a(libc_a-reallocr.o)
 .data          0x00000000        0x0 /usr/lib/gcc/arm-none-eabi/13.2.1/../../../arm-none-eabi/lib/thumb/v7e-m/nofp/libc_nano.a(libc_a-nano-vfprintf_i.o)
 .bss           0x00000000        0x0 /usr/lib/gcc/arm-none-eabi/13.2.1/../../../arm-none-eabi/lib/thumb/v7e-m/nofp/libc_nano.a(libc_a-nano-vfprintf_i.o)
 .data          0x00000000        0x0 /usr/lib/gcc/arm-none-eabi/13.2.1/../../../arm-none-eabi/lib/thumb/v7e-m/nofp/libc_nano.a(libc_a-mlock.o)
 .bss           0x00000000        0x0 /usr/lib/gcc/arm-none-eabi/13.2.1/../../../arm-none-eabi/lib/thumb/v7e-m/nofp/libc_nano.a(libc_a-mlock.o)
 .data          0x00000000        0x0 /usr/lib/gcc/arm-none-eabi/13.2.1/../../../arm-none-eabi/lib/thumb/v7e-m/nofp/libc_nano.a(libc_a-strncmp.o)
 .bss           0x00000000        0x0 /usr/lib/gcc/arm-none-eabi/13.2.1/../../../arm-none-eabi/lib/thumb/v7e-m/nofp/libc_nano.a(libc_a-strncmp.o)
 .data          0x00000000        0x0 /usr/lib/gcc/arm-none-eabi/13.2.1/../../../arm-none-eabi/lib/thumb/v7e-m/nofp/libc_nano.a(libc_a-strcmp.o)
 .bss           0x00000000        0x0 /usr/lib/gcc/arm-none-eabi/13.2.1/../../../arm-none-eabi/lib/thumb/v7e-m/nofp/libc_nano.a(libc_a-strcmp.o)
 .ARM.extab     0x00000000        0x0 /usr/lib/gcc/arm-none-eabi/13.2.1/../../../arm-none-eabi/lib/thumb/v7e-m/nofp/libc_nano.a(libc_a-strcmp.o)
 .text          0x00000000       0x24 /usr/lib/gcc/arm-none-eabi/13.2.1/../../../arm-none-eabi/lib/thumb/v7e-m/nofp/libc_nano.a(libc_a-exit.o)
 .data          0x00000000        0x0 /usr/lib/gcc/arm-none-eabi/13.2.1/../../../arm-none-eabi/lib/thumb/v7e-m/nofp/libc_nano.a(libc_a-exit.o)
 .bss           0x00000000        0x0 /usr/lib/gcc/arm-none-eabi/13.2.1/../../../arm-none-eabi/lib/thumb/v7e-m/nofp/libc_nano.a(libc_a-exit.o)
 .debug_info    0x00000000      0x11b /usr/lib/gcc/arm-none-eabi/13.2.1/../../../arm-none-eabi/lib/thumb/v7e-m/nofp/libc_nano.a(libc_a-exit.o)
 .debug_abbrev  0x00000000       0xd8 /usr/lib/gcc/arm-none-eabi/13.2.1/../../../arm-none-eabi/lib/thumb/v7e-m/nofp/libc_nano.a(libc_a-exit.o)
 .debug_loclists
                0x00000000       0x1b /usr/lib/gcc/arm-none-eabi/13.2.1/../../../arm-none-eabi/lib/thumb/v7e-m/nofp/libc_nano.a(libc_a-exit.o)
 .debug_aranges
                0x00000000       0x20 /usr/lib/gcc/arm-none-eabi/13.2.1/../../../arm-none-eabi/lib/thumb/v7e-m/nofp/libc_nano.a(libc_a-exit.o)
 .debug_line    0x00000000      0x12d /usr/lib/gcc/arm-none-eabi/13.2.1/../../../arm-none-eabi/lib/thumb/v7e-m/nofp/libc_nano.a(libc_a-exit.o)
 .debug_str     0x00000000      0x1b9 /usr/lib/gcc/arm-none-eabi/13.2.1/../../../arm-none-eabi/lib/thumb/v7e-m/nofp/libc_nano.a(libc_a-exit.o)
 .comment       0x00000000       0x27 /usr/lib/gcc/arm-none-eabi/13.2.1/../../../arm-none-eabi/lib/thumb/v7e-m/nofp/libc_nano.a(libc_a-exit.o)
 .debug_frame   0x00000000       0x28 /usr/lib/gcc/arm-none-eabi/13.2.1/../../../arm-none-eabi/lib/thumb/v7e-m/nofp/libc_nano.a(libc_a-exit.o)
 .ARM.attributes
                0x00000000       0x2e /usr/lib/gcc/arm-none-eabi/13.2.1/../../../arm-none-eabi/lib/thumb/v7e-m/nofp/libc_nano.a(libc_a-exit.o)
 .text          0x00000000        0xc /usr/lib/gcc/arm-none-eabi/13.2.1/../../../arm-none-eabi/lib/thumb/v7e-m/nofp/libc_nano.a(libc_a-atexit.o)
 .data          0x00000000        0x0 /usr/lib/gcc/arm-none-eabi/13.2.1/../../../arm-none-eabi/lib/thumb/v7e-m/nofp/libc_nano.a(libc_a-atexit.o)
 .bss           0x00000000        0x0 /usr/lib/gcc/arm-none-eabi/13.2.1/../../../arm-none-eabi/lib/thumb/v7e-m/nofp/libc_nano.a(libc_a-atexit.o)
 .debug_info    0x00000000      0x11e /usr/lib/gcc/arm-none-eabi/13.2.1/../../../arm-none-eabi/lib/thumb/v7e-m/nofp/libc_nano.a(libc_a-atexit.o)
 .debug_abbrev  0x00000000       0xc1 /usr/lib/gcc/arm-none-eabi/13.2.1/../../../arm-none-eabi/lib/thumb/v7e-m/nofp/libc_nano.a(libc_a-atexit.o)
 .debug_loclists
                0x00000000       0x2b /usr/lib/gcc/arm-none-eabi/13.2.1/../../../arm-none-eabi/lib/thumb/v7e-m/nofp/libc_nano.a(libc_a-atexit.o)
 .debug_aranges
                0x00000000       0x20 /usr/lib/gcc/arm-none-eabi/13.2.1/../../../arm-none-eabi/lib/thumb/v7e-m/nofp/libc_nano.a(libc_a-atexit.o)
 .debug_line    0x00000000       0xc3 /usr/lib/gcc/arm-none-eabi/13.2.1/../../../arm-none-eabi/lib/thumb/v7e-m/nofp/libc_nano.a(libc_a-atexit.o)
 .debug_str     0x00000000      0x1d0 /usr/lib/gcc/arm-none-eabi/13.2.1/../../../arm-none-eabi/lib/thumb/v7e-m/nofp/libc_nano.a(libc_a-atexit.o)
 .comment       0x00000000       0x27 /usr/lib/gcc/arm-none-eabi/13.2.1/../../../arm-none-eabi/lib/thumb/v7e-m/nofp/libc_nano.a(libc_a-atexit.o)
 .debug_frame   0x00000000       0x20 /usr/lib/gcc/arm-none-eabi/13.2.1/../../../arm-none-eabi/lib/thumb/v7e-m/nofp/libc_nano.a(libc_a-atexit.o)
 .ARM.attributes
                0x00000000       0x2e /usr/lib/gcc/arm-none-eabi/13.2.1/../../../arm-none-eabi/lib/thumb/v7e-m/nofp/libc_nano.a(libc_a-atexit.o)
 .data          0x00000000        0x0 /usr/lib/gcc/arm-none-eabi/13.2.1/../../../arm-none-eabi/lib/thumb/v7e-m/nofp/libc_nano.a(libc_a-memcmp.o)
 .bss           0x00000000        0x0 /usr/lib/gcc/arm-none-eabi/13.2.1/../../../arm-none-eabi/lib/thumb/v7e-m/nofp/libc_nano.a(libc_a-memcmp.o)
 .text          0x00000000       0x28 /usr/lib/gcc/arm-none-eabi/13.2.1/../../../arm-none-eabi/lib/thumb/v7e-m/nofp/libc_nano.a(libc_a-fini.o)
 .data          0x00000000        0x0 /usr/lib/gcc/arm-none-eabi/13.2.1/../../../arm-none-eabi/lib/thumb/v7e-m/nofp/libc_nano.a(libc_a-fini.o)
 .bss           0x00000000        0x0 /usr/lib/gcc/arm-none-eabi/13.2.1/../../../arm-none-eabi/lib/thumb/v7e-m/nofp/libc_nano.a(libc_a-fini.o)
 .debug_info    0x00000000       0xf7 /usr/lib/gcc/arm-none-eabi/13.2.1/../../../arm-none-eabi/lib/thumb/v7e-m/nofp/libc_nano.a(libc_a-fini.o)
 .debug_abbrev  0x00000000       0xcc /usr/lib/gcc/arm-none-eabi/13.2.1/../../../arm-none-eabi/lib/thumb/v7e-m/nofp/libc_nano.a(libc_a-fini.o)
 .debug_loclists
                0x00000000       0x42 /usr/lib/gcc/arm-none-eabi/13.2.1/../../../arm-none-eabi/lib/thumb/v7e-m/nofp/libc_nano.a(libc_a-fini.o)
 .debug_aranges
                0x00000000       0x20 /usr/lib/gcc/arm-none-eabi/13.2.1/../../../arm-none-eabi/lib/thumb/v7e-m/nofp/libc_nano.a(libc_a-fini.o)
 .debug_line    0x00000000       0xd2 /usr/lib/gcc/arm-none-eabi/13.2.1/../../../arm-none-eabi/lib/thumb/v7e-m/nofp/libc_nano.a(libc_a-fini.o)
 .debug_str     0x00000000      0x1ca /usr/lib/gcc/arm-none-eabi/13.2.1/../../../arm-none-eabi/lib/thumb/v7e-m/nofp/libc_nano.a(libc_a-fini.o)
 .comment       0x00000000       0x27 /usr/lib/gcc/arm-none-eabi/13.2.1/../../../arm-none-eabi/lib/thumb/v7e-m/nofp/libc_nano.a(libc_a-fini.o)
 .debug_frame   0x00000000       0x34 /usr/lib/gcc/arm-none-eabi/13.2.1/../../../arm-none-eabi/lib/thumb/v7e-m/nofp/libc_nano.a(libc_a-fini.o)
 .ARM.attributes
                0x00000000       0x2e /usr/lib/gcc/arm-none-eabi/13.2.1/../../../arm-none-eabi/lib/thumb/v7e-m/nofp/libc_nano.a(libc_a-fini.o)
 .data          0x00000000        0x0 /usr/lib/gcc/arm-none-eabi/13.2.1/../../../arm-none-eabi/lib/thumb/v7e-m/nofp/libc_nano.a(libc_a-sbrkr.o)
 .bss           0x00000000        0x0 /usr/lib/gcc/arm-none-eabi/13.2.1/../../../arm-none-eabi/lib/thumb/v7e-m/nofp/libc_nano.a(libc_a-sbrkr.o)
 .data          0x00000000        0x0 /usr/lib/gcc/arm-none-eabi/13.2.1/../../../arm-none-eabi/lib/thumb/v7e-m/nofp/libc_nano.a(libc_a-msizer.o)
 .bss           0x00000000        0x0 /usr/lib/gcc/arm-none-eabi/13.2.1/../../../arm-none-eabi/lib/thumb/v7e-m/nofp/libc_nano.a(libc_a-msizer.o)
 .text          0x00000000      0x224 /usr/lib/gcc/arm-none-eabi/13.2.1/../../../arm-none-eabi/lib/thumb/v7e-m/nofp/libc_nano.a(libc_a-findfp.o)
 .data          0x00000000        0xc /usr/lib/gcc/arm-none-eabi/13.2.1/../../../arm-none-eabi/lib/thumb/v7e-m/nofp/libc_nano.a(libc_a-findfp.o)
 .text          0x00000000      0x198 /usr/lib/gcc/arm-none-eabi/13.2.1/../../../arm-none-eabi/lib/thumb/v7e-m/nofp/libc_nano.a(libc_a-fflush.o)
 .data          0x00000000        0x0 /usr/lib/gcc/arm-none-eabi/13.2.1/../../../arm-none-eabi/lib/thumb/v7e-m/nofp/libc_nano.a(libc_a-fflush.o)
 .bss           0x00000000        0x0 /usr/lib/gcc/arm-none-eabi/13.2.1/../../../arm-none-eabi/lib/thumb/v7e-m/nofp/libc_nano.a(libc_a-fflush.o)
 .debug_info    0x00000000      0xa30 /usr/lib/gcc/arm-none-eabi/13.2.1/../../../arm-none-eabi/lib/thumb/v7e-m/nofp/libc_nano.a(libc_a-fflush.o)
 .debug_abbrev  0x00000000      0x2e1 /usr/lib/gcc/arm-none-eabi/13.2.1/../../../arm-none-eabi/lib/thumb/v7e-m/nofp/libc_nano.a(libc_a-fflush.o)
 .debug_loclists
                0x00000000      0x2f2 /usr/lib/gcc/arm-none-eabi/13.2.1/../../../arm-none-eabi/lib/thumb/v7e-m/nofp/libc_nano.a(libc_a-fflush.o)
 .debug_aranges
                0x00000000       0x20 /usr/lib/gcc/arm-none-eabi/13.2.1/../../../arm-none-eabi/lib/thumb/v7e-m/nofp/libc_nano.a(libc_a-fflush.o)
 .debug_rnglists
                0x00000000       0x58 /usr/lib/gcc/arm-none-eabi/13.2.1/../../../arm-none-eabi/lib/thumb/v7e-m/nofp/libc_nano.a(libc_a-fflush.o)
 .debug_line    0x00000000      0x44d /usr/lib/gcc/arm-none-eabi/13.2.1/../../../arm-none-eabi/lib/thumb/v7e-m/nofp/libc_nano.a(libc_a-fflush.o)
 .debug_str     0x00000000      0x53d /usr/lib/gcc/arm-none-eabi/13.2.1/../../../arm-none-eabi/lib/thumb/v7e-m/nofp/libc_nano.a(libc_a-fflush.o)
 .comment       0x00000000       0x27 /usr/lib/gcc/arm-none-eabi/13.2.1/../../../arm-none-eabi/lib/thumb/v7e-m/nofp/libc_nano.a(libc_a-fflush.o)
 .debug_frame   0x00000000       0x8c /usr/lib/gcc/arm-none-eabi/13.2.1/../../../arm-none-eabi/lib/thumb/v7e-m/nofp/libc_nano.a(libc_a-fflush.o)
 .ARM.attributes
                0x00000000       0x2e /usr/lib/gcc/arm-none-eabi/13.2.1/../../../arm-none-eabi/lib/thumb/v7e-m/nofp/libc_nano.a(libc_a-fflush.o)
 .text          0x00000000       0x44 /usr/lib/gcc/arm-none-eabi/13.2.1/../../../arm-none-eabi/lib/thumb/v7e-m/nofp/libc_nano.a(libc_a-fwalk.o)
 .data          0x00000000        0x0 /usr/lib/gcc/arm-none-eabi/13.2.1/../../../arm-none-eabi/lib/thumb/v7e-m/nofp/libc_nano.a(libc_a-fwalk.o)
 .bss           0x00000000        0x0 /usr/lib/gcc/arm-none-eabi/13.2.1/../../../arm-none-eabi/lib/thumb/v7e-m/nofp/libc_nano.a(libc_a-fwalk.o)
 .debug_info    0x00000000      0x7c8 /usr/lib/gcc/arm-none-eabi/13.2.1/../../../arm-none-eabi/lib/thumb/v7e-m/nofp/libc_nano.a(libc_a-fwalk.o)
 .debug_abbrev  0x00000000      0x19b /usr/lib/gcc/arm-none-eabi/13.2.1/../../../arm-none-eabi/lib/thumb/v7e-m/nofp/libc_nano.a(libc_a-fwalk.o)
 .debug_loclists
                0x00000000       0x87 /usr/lib/gcc/arm-none-eabi/13.2.1/../../../arm-none-eabi/lib/thumb/v7e-m/nofp/libc_nano.a(libc_a-fwalk.o)
 .debug_aranges
                0x00000000       0x20 /usr/lib/gcc/arm-none-eabi/13.2.1/../../../arm-none-eabi/lib/thumb/v7e-m/nofp/libc_nano.a(libc_a-fwalk.o)
 .debug_line    0x00000000      0x1d1 /usr/lib/gcc/arm-none-eabi/13.2.1/../../../arm-none-eabi/lib/thumb/v7e-m/nofp/libc_nano.a(libc_a-fwalk.o)
 .debug_str     0x00000000      0x4c6 /usr/lib/gcc/arm-none-eabi/13.2.1/../../../arm-none-eabi/lib/thumb/v7e-m/nofp/libc_nano.a(libc_a-fwalk.o)
 .comment       0x00000000       0x27 /usr/lib/gcc/arm-none-eabi/13.2.1/../../../arm-none-eabi/lib/thumb/v7e-m/nofp/libc_nano.a(libc_a-fwalk.o)
 .debug_frame   0x00000000       0x34 /usr/lib/gcc/arm-none-eabi/13.2.1/../../../arm-none-eabi/lib/thumb/v7e-m/nofp/libc_nano.a(libc_a-fwalk.o)
 .ARM.attributes
                0x00000000       0x2e /usr/lib/gcc/arm-none-eabi/13.2.1/../../../arm-none-eabi/lib/thumb/v7e-m/nofp/libc_nano.a(libc_a-fwalk.o)
 .text          0x00000000       0xac /usr/lib/gcc/arm-none-eabi/13.2.1/../../../arm-none-eabi/lib/thumb/v7e-m/nofp/libc_nano.a(libc_a-__atexit.o)
 .data          0x00000000        0x4 /usr/lib/gcc/arm-none-eabi/13.2.1/../../../arm-none-eabi/lib/thumb/v7e-m/nofp/libc_nano.a(libc_a-__atexit.o)
 .bss           0x00000000       0x8c /usr/lib/gcc/arm-none-eabi/13.2.1/../../../arm-none-eabi/lib/thumb/v7e-m/nofp/libc_nano.a(libc_a-__atexit.o)
 .debug_info    0x00000000      0x284 /usr/lib/gcc/arm-none-eabi/13.2.1/../../../arm-none-eabi/lib/thumb/v7e-m/nofp/libc_nano.a(libc_a-__atexit.o)
 .debug_abbrev  0x00000000      0x1d4 /usr/lib/gcc/arm-none-eabi/13.2.1/../../../arm-none-eabi/lib/thumb/v7e-m/nofp/libc_nano.a(libc_a-__atexit.o)
 .debug_loclists
                0x00000000      0x127 /usr/lib/gcc/arm-none-eabi/13.2.1/../../../arm-none-eabi/lib/thumb/v7e-m/nofp/libc_nano.a(libc_a-__atexit.o)
 .debug_aranges
                0x00000000       0x20 /usr/lib/gcc/arm-none-eabi/13.2.1/../../../arm-none-eabi/lib/thumb/v7e-m/nofp/libc_nano.a(libc_a-__atexit.o)
 .debug_line    0x00000000      0x230 /usr/lib/gcc/arm-none-eabi/13.2.1/../../../arm-none-eabi/lib/thumb/v7e-m/nofp/libc_nano.a(libc_a-__atexit.o)
 .debug_str     0x00000000      0x28a /usr/lib/gcc/arm-none-eabi/13.2.1/../../../arm-none-eabi/lib/thumb/v7e-m/nofp/libc_nano.a(libc_a-__atexit.o)
 .comment       0x00000000       0x27 /usr/lib/gcc/arm-none-eabi/13.2.1/../../../arm-none-eabi/lib/thumb/v7e-m/nofp/libc_nano.a(libc_a-__atexit.o)
 .debug_frame   0x00000000       0x38 /usr/lib/gcc/arm-none-eabi/13.2.1/../../../arm-none-eabi/lib/thumb/v7e-m/nofp/libc_nano.a(libc_a-__atexit.o)
 .ARM.attributes
                0x00000000       0x2e /usr/lib/gcc/arm-none-eabi/13.2.1/../../../arm-none-eabi/lib/thumb/v7e-m/nofp/libc_nano.a(libc_a-__atexit.o)
 .text          0x00000000       0xd4 /usr/lib/gcc/arm-none-eabi/13.2.1/../../../arm-none-eabi/lib/thumb/v7e-m/nofp/libc_nano.a(libc_a-reent.o)
 .data          0x00000000        0x0 /usr/lib/gcc/arm-none-eabi/13.2.1/../../../arm-none-eabi/lib/thumb/v7e-m/nofp/libc_nano.a(libc_a-reent.o)
 .text          0x00000000       0x94 /usr/lib/gcc/arm-none-eabi/13.2.1/../../../arm-none-eabi/lib/thumb/v7e-m/nofp/libc_nano.a(libc_a-stdio.o)
 .data          0x00000000        0x0 /usr/lib/gcc/arm-none-eabi/13.2.1/../../../arm-none-eabi/lib/thumb/v7e-m/nofp/libc_nano.a(libc_a-stdio.o)
 .bss           0x00000000        0x0 /usr/lib/gcc/arm-none-eabi/13.2.1/../../../arm-none-eabi/lib/thumb/v7e-m/nofp/libc_nano.a(libc_a-stdio.o)
 .debug_info    0x00000000      0xa80 /usr/lib/gcc/arm-none-eabi/13.2.1/../../../arm-none-eabi/lib/thumb/v7e-m/nofp/libc_nano.a(libc_a-stdio.o)
 .debug_abbrev  0x00000000      0x224 /usr/lib/gcc/arm-none-eabi/13.2.1/../../../arm-none-eabi/lib/thumb/v7e-m/nofp/libc_nano.a(libc_a-stdio.o)
 .debug_loclists
                0x00000000      0x23b /usr/lib/gcc/arm-none-eabi/13.2.1/../../../arm-none-eabi/lib/thumb/v7e-m/nofp/libc_nano.a(libc_a-stdio.o)
 .debug_aranges
                0x00000000       0x20 /usr/lib/gcc/arm-none-eabi/13.2.1/../../../arm-none-eabi/lib/thumb/v7e-m/nofp/libc_nano.a(libc_a-stdio.o)
 .debug_line    0x00000000      0x22b /usr/lib/gcc/arm-none-eabi/13.2.1/../../../arm-none-eabi/lib/thumb/v7e-m/nofp/libc_nano.a(libc_a-stdio.o)
 .debug_str     0x00000000      0x523 /usr/lib/gcc/arm-none-eabi/13.2.1/../../../arm-none-eabi/lib/thumb/v7e-m/nofp/libc_nano.a(libc_a-stdio.o)
 .comment       0x00000000       0x27 /usr/lib/gcc/arm-none-eabi/13.2.1/../../../arm-none-eabi/lib/thumb/v7e-m/nofp/libc_nano.a(libc_a-stdio.o)
 .debug_frame   0x00000000       0x8c /usr/lib/gcc/arm-none-eabi/13.2.1/../../../arm-none-eabi/lib/thumb/v7e-m/nofp/libc_nano.a(libc_a-stdio.o)
 .ARM.attributes
                0x00000000       0x2e /usr/lib/gcc/arm-none-eabi/13.2.1/../../../arm-none-eabi/lib/thumb/v7e-m/nofp/libc_nano.a(libc_a-stdio.o)
 .text          0x00000000       0x24 /usr/lib/gcc/arm-none-eabi/13.2.1/../../../arm-none-eabi/lib/thumb/v7e-m/nofp/libc_nano.a(libc_a-closer.o)
 .data          0x00000000        0x0 /usr/lib/gcc/arm-none-eabi/13.2.1/../../../arm-none-eabi/lib/thumb/v7e-m/nofp/libc_nano.a(libc_a-closer.o)
 .bss           0x00000000        0x0 /usr/lib/gcc/arm-none-eabi/13.2.1/../../../arm-none-eabi/lib/thumb/v7e-m/nofp/libc_nano.a(libc_a-closer.o)
 .debug_info    0x00000000      0x752 /usr/lib/gcc/arm-none-eabi/13.2.1/../../../arm-none-eabi/lib/thumb/v7e-m/nofp/libc_nano.a(libc_a-closer.o)
 .debug_abbrev  0x00000000      0x1b0 /usr/lib/gcc/arm-none-eabi/13.2.1/../../../arm-none-eabi/lib/thumb/v7e-m/nofp/libc_nano.a(libc_a-closer.o)
 .debug_loclists
                0x00000000       0x4b /usr/lib/gcc/arm-none-eabi/13.2.1/../../../arm-none-eabi/lib/thumb/v7e-m/nofp/libc_nano.a(libc_a-closer.o)
 .debug_aranges
                0x00000000       0x20 /usr/lib/gcc/arm-none-eabi/13.2.1/../../../arm-none-eabi/lib/thumb/v7e-m/nofp/libc_nano.a(libc_a-closer.o)
 .debug_line    0x00000000      0x193 /usr/lib/gcc/arm-none-eabi/13.2.1/../../../arm-none-eabi/lib/thumb/v7e-m/nofp/libc_nano.a(libc_a-closer.o)
 .debug_str     0x00000000      0x4ac /usr/lib/gcc/arm-none-eabi/13.2.1/../../../arm-none-eabi/lib/thumb/v7e-m/nofp/libc_nano.a(libc_a-closer.o)
 .comment       0x00000000       0x27 /usr/lib/gcc/arm-none-eabi/13.2.1/../../../arm-none-eabi/lib/thumb/v7e-m/nofp/libc_nano.a(libc_a-closer.o)
 .debug_frame   0x00000000       0x2c /usr/lib/gcc/arm-none-eabi/13.2.1/../../../arm-none-eabi/lib/thumb/v7e-m/nofp/libc_nano.a(libc_a-closer.o)
 .ARM.attributes
                0x00000000       0x2e /usr/lib/gcc/arm-none-eabi/13.2.1/../../../arm-none-eabi/lib/thumb/v7e-m/nofp/libc_nano.a(libc_a-closer.o)
 .text          0x00000000       0xc4 /usr/lib/gcc/arm-none-eabi/13.2.1/../../../arm-none-eabi/lib/thumb/v7e-m/nofp/libc_nano.a(libc_a-__call_atexit.o)
 .data          0x00000000        0x0 /usr/lib/gcc/arm-none-eabi/13.2.1/../../../arm-none-eabi/lib/thumb/v7e-m/nofp/libc_nano.a(libc_a-__call_atexit.o)
 .bss           0x00000000        0x4 /usr/lib/gcc/arm-none-eabi/13.2.1/../../../arm-none-eabi/lib/thumb/v7e-m/nofp/libc_nano.a(libc_a-__call_atexit.o)
 .debug_info    0x00000000      0x235 /usr/lib/gcc/arm-none-eabi/13.2.1/../../../arm-none-eabi/lib/thumb/v7e-m/nofp/libc_nano.a(libc_a-__call_atexit.o)
 .debug_abbrev  0x00000000      0x179 /usr/lib/gcc/arm-none-eabi/13.2.1/../../../arm-none-eabi/lib/thumb/v7e-m/nofp/libc_nano.a(libc_a-__call_atexit.o)
 .debug_loclists
                0x00000000       0xff /usr/lib/gcc/arm-none-eabi/13.2.1/../../../arm-none-eabi/lib/thumb/v7e-m/nofp/libc_nano.a(libc_a-__call_atexit.o)
 .debug_aranges
                0x00000000       0x20 /usr/lib/gcc/arm-none-eabi/13.2.1/../../../arm-none-eabi/lib/thumb/v7e-m/nofp/libc_nano.a(libc_a-__call_atexit.o)
 .debug_rnglists
                0x00000000       0x2c /usr/lib/gcc/arm-none-eabi/13.2.1/../../../arm-none-eabi/lib/thumb/v7e-m/nofp/libc_nano.a(libc_a-__call_atexit.o)
 .debug_line    0x00000000      0x246 /usr/lib/gcc/arm-none-eabi/13.2.1/../../../arm-none-eabi/lib/thumb/v7e-m/nofp/libc_nano.a(libc_a-__call_atexit.o)
 .debug_str     0x00000000      0x23c /usr/lib/gcc/arm-none-eabi/13.2.1/../../../arm-none-eabi/lib/thumb/v7e-m/nofp/libc_nano.a(libc_a-__call_atexit.o)
 .comment       0x00000000       0x27 /usr/lib/gcc/arm-none-eabi/13.2.1/../../../arm-none-eabi/lib/thumb/v7e-m/nofp/libc_nano.a(libc_a-__call_atexit.o)
 .debug_frame   0x00000000       0x40 /usr/lib/gcc/arm-none-eabi/13.2.1/../../../arm-none-eabi/lib/thumb/v7e-m/nofp/libc_nano.a(libc_a-__call_atexit.o)
 .ARM.attributes
                0x00000000       0x2e /usr/lib/gcc/arm-none-eabi/13.2.1/../../../arm-none-eabi/lib/thumb/v7e-m/nofp/libc_nano.a(libc_a-__call_atexit.o)
 .text          0x00000000       0x2c /usr/lib/gcc/arm-none-eabi/13.2.1/../../../arm-none-eabi/lib/thumb/v7e-m/nofp/libc_nano.a(libc_a-readr.o)
 .data          0x00000000        0x0 /usr/lib/gcc/arm-none-eabi/13.2.1/../../../arm-none-eabi/lib/thumb/v7e-m/nofp/libc_nano.a(libc_a-readr.o)
 .bss           0x00000000        0x0 /usr/lib/gcc/arm-none-eabi/13.2.1/../../../arm-none-eabi/lib/thumb/v7e-m/nofp/libc_nano.a(libc_a-readr.o)
 .debug_info    0x00000000      0x7b5 /usr/lib/gcc/arm-none-eabi/13.2.1/../../../arm-none-eabi/lib/thumb/v7e-m/nofp/libc_nano.a(libc_a-readr.o)
 .debug_abbrev  0x00000000      0x1b0 /usr/lib/gcc/arm-none-eabi/13.2.1/../../../arm-none-eabi/lib/thumb/v7e-m/nofp/libc_nano.a(libc_a-readr.o)
 .debug_loclists
                0x00000000       0x9e /usr/lib/gcc/arm-none-eabi/13.2.1/../../../arm-none-eabi/lib/thumb/v7e-m/nofp/libc_nano.a(libc_a-readr.o)
 .debug_aranges
                0x00000000       0x20 /usr/lib/gcc/arm-none-eabi/13.2.1/../../../arm-none-eabi/lib/thumb/v7e-m/nofp/libc_nano.a(libc_a-readr.o)
 .debug_line    0x00000000      0x198 /usr/lib/gcc/arm-none-eabi/13.2.1/../../../arm-none-eabi/lib/thumb/v7e-m/nofp/libc_nano.a(libc_a-readr.o)
 .debug_str     0x00000000      0x4ba /usr/lib/gcc/arm-none-eabi/13.2.1/../../../arm-none-eabi/lib/thumb/v7e-m/nofp/libc_nano.a(libc_a-readr.o)
 .comment       0x00000000       0x27 /usr/lib/gcc/arm-none-eabi/13.2.1/../../../arm-none-eabi/lib/thumb/v7e-m/nofp/libc_nano.a(libc_a-readr.o)
 .debug_frame   0x00000000       0x2c /usr/lib/gcc/arm-none-eabi/13.2.1/../../../arm-none-eabi/lib/thumb/v7e-m/nofp/libc_nano.a(libc_a-readr.o)
 .ARM.attributes
                0x00000000       0x2e /usr/lib/gcc/arm-none-eabi/13.2.1/../../../arm-none-eabi/lib/thumb/v7e-m/nofp/libc_nano.a(libc_a-readr.o)
 .text          0x00000000       0x2c /usr/lib/gcc/arm-none-eabi/13.2.1/../../../arm-none-eabi/lib/thumb/v7e-m/nofp/libc_nano.a(libc_a-lseekr.o)
 .data          0x00000000        0x0 /usr/lib/gcc/arm-none-eabi/13.2.1/../../../arm-none-eabi/lib/thumb/v7e-m/nofp/libc_nano.a(libc_a-lseekr.o)
 .bss           0x00000000        0x0 /usr/lib/gcc/arm-none-eabi/13.2.1/../../../arm-none-eabi/lib/thumb/v7e-m/nofp/libc_nano.a(libc_a-lseekr.o)
 .debug_info    0x00000000      0x79e /usr/lib/gcc/arm-none-eabi/13.2.1/../../../arm-none-eabi/lib/thumb/v7e-m/nofp/libc_nano.a(libc_a-lseekr.o)
 .debug_abbrev  0x00000000      0x1c4 /usr/lib/gcc/arm-none-eabi/13.2.1/../../../arm-none-eabi/lib/thumb/v7e-m/nofp/libc_nano.a(libc_a-lseekr.o)
 .debug_loclists
                0x00000000       0x9e /usr/lib/gcc/arm-none-eabi/13.2.1/../../../arm-none-eabi/lib/thumb/v7e-m/nofp/libc_nano.a(libc_a-lseekr.o)
 .debug_aranges
                0x00000000       0x20 /usr/lib/gcc/arm-none-eabi/13.2.1/../../../arm-none-eabi/lib/thumb/v7e-m/nofp/libc_nano.a(libc_a-lseekr.o)
 .debug_line    0x00000000      0x199 /usr/lib/gcc/arm-none-eabi/13.2.1/../../../arm-none-eabi/lib/thumb/v7e-m/nofp/libc_nano.a(libc_a-lseekr.o)
 .debug_str     0x00000000      0x4ba /usr/lib/gcc/arm-none-eabi/13.2.1/../../../arm-none-eabi/lib/thumb/v7e-m/nofp/libc_nano.a(libc_a-lseekr.o)
 .comment       0x00000000       0x27 /usr/lib/gcc/arm-none-eabi/13.2.1/../../../arm-none-eabi/lib/thumb/v7e-m/nofp/libc_nano.a(libc_a-lseekr.o)
 .debug_frame   0x00000000       0x2c /usr/lib/gcc/arm-none-eabi/13.2.1/../../../arm-none-eabi/lib/thumb/v7e-m/nofp/libc_nano.a(libc_a-lseekr.o)
 .ARM.attributes
                0x00000000       0x2e /usr/lib/gcc/arm-none-eabi/13.2.1/../../../arm-none-eabi/lib/thumb/v7e-m/nofp/libc_nano.a(libc_a-lseekr.o)
 .text          0x00000000       0x2c /usr/lib/gcc/arm-none-eabi/13.2.1/../../../arm-none-eabi/lib/thumb/v7e-m/nofp/libc_nano.a(libc_a-writer.o)
 .data          0x00000000        0x0 /usr/lib/gcc/arm-none-eabi/13.2.1/../../../arm-none-eabi/lib/thumb/v7e-m/nofp/libc_nano.a(libc_a-writer.o)
 .bss           0x00000000        0x0 /usr/lib/gcc/arm-none-eabi/13.2.1/../../../arm-none-eabi/lib/thumb/v7e-m/nofp/libc_nano.a(libc_a-writer.o)
 .debug_info    0x00000000      0x7bb /usr/lib/gcc/arm-none-eabi/13.2.1/../../../arm-none-eabi/lib/thumb/v7e-m/nofp/libc_nano.a(libc_a-writer.o)
 .debug_abbrev  0x00000000      0x1b5 /usr/lib/gcc/arm-none-eabi/13.2.1/../../../arm-none-eabi/lib/thumb/v7e-m/nofp/libc_nano.a(libc_a-writer.o)
 .debug_loclists
                0x00000000       0x9e /usr/lib/gcc/arm-none-eabi/13.2.1/../../../arm-none-eabi/lib/thumb/v7e-m/nofp/libc_nano.a(libc_a-writer.o)
 .debug_aranges
                0x00000000       0x20 /usr/lib/gcc/arm-none-eabi/13.2.1/../../../arm-none-eabi/lib/thumb/v7e-m/nofp/libc_nano.a(libc_a-writer.o)
 .debug_line    0x00000000      0x199 /usr/lib/gcc/arm-none-eabi/13.2.1/../../../arm-none-eabi/lib/thumb/v7e-m/nofp/libc_nano.a(libc_a-writer.o)
 .debug_str     0x00000000      0x4bc /usr/lib/gcc/arm-none-eabi/13.2.1/../../../arm-none-eabi/lib/thumb/v7e-m/nofp/libc_nano.a(libc_a-writer.o)
 .comment       0x00000000       0x27 /usr/lib/gcc/arm-none-eabi/13.2.1/../../../arm-none-eabi/lib/thumb/v7e-m/nofp/libc_nano.a(libc_a-writer.o)
 .debug_frame   0x00000000       0x2c /usr/lib/gcc/arm-none-eabi/13.2.1/../../../arm-none-eabi/lib/thumb/v7e-m/nofp/libc_nano.a(libc_a-writer.o)
 .ARM.attributes
                0x00000000       0x2e /usr/lib/gcc/arm-none-eabi/13.2.1/../../../arm-none-eabi/lib/thumb/v7e-m/nofp/libc_nano.a(libc_a-writer.o)
 .data          0x00000000        0x0 /usr/lib/gcc/arm-none-eabi/13.2.1/../../../arm-none-eabi/lib/thumb/v7e-m/nofp/libnosys.a(sbrk.o)
 .text          0x00000000        0x4 /usr/lib/gcc/arm-none-eabi/13.2.1/../../../arm-none-eabi/lib/thumb/v7e-m/nofp/libnosys.a(_exit.o)
 .data          0x00000000        0x0 /usr/lib/gcc/arm-none-eabi/13.2.1/../../../arm-none-eabi/lib/thumb/v7e-m/nofp/libnosys.a(_exit.o)
 .bss           0x00000000        0x0 /usr/lib/gcc/arm-none-eabi/13.2.1/../../../arm-none-eabi/lib/thumb/v7e-m/nofp/libnosys.a(_exit.o)
 .debug_info    0x00000000       0xa4 /usr/lib/gcc/arm-none-eabi/13.2.1/../../../arm-none-eabi/lib/thumb/v7e-m/nofp/libnosys.a(_exit.o)
 .debug_abbrev  0x00000000       0x69 /usr/lib/gcc/arm-none-eabi/13.2.1/../../../arm-none-eabi/lib/thumb/v7e-m/nofp/libnosys.a(_exit.o)
 .debug_loclists
                0x00000000       0x14 /usr/lib/gcc/arm-none-eabi/13.2.1/../../../arm-none-eabi/lib/thumb/v7e-m/nofp/libnosys.a(_exit.o)
 .debug_aranges
                0x00000000       0x20 /usr/lib/gcc/arm-none-eabi/13.2.1/../../../arm-none-eabi/lib/thumb/v7e-m/nofp/libnosys.a(_exit.o)
 .debug_line    0x00000000       0x61 /usr/lib/gcc/arm-none-eabi/13.2.1/../../../arm-none-eabi/lib/thumb/v7e-m/nofp/libnosys.a(_exit.o)
 .debug_str     0x00000000      0x163 /usr/lib/gcc/arm-none-eabi/13.2.1/../../../arm-none-eabi/lib/thumb/v7e-m/nofp/libnosys.a(_exit.o)
 .comment       0x00000000       0x27 /usr/lib/gcc/arm-none-eabi/13.2.1/../../../arm-none-eabi/lib/thumb/v7e-m/nofp/libnosys.a(_exit.o)
 .debug_frame   0x00000000       0x20 /usr/lib/gcc/arm-none-eabi/13.2.1/../../../arm-none-eabi/lib/thumb/v7e-m/nofp/libnosys.a(_exit.o)
 .ARM.attributes
                0x00000000       0x2e /usr/lib/gcc/arm-none-eabi/13.2.1/../../../arm-none-eabi/lib/thumb/v7e-m/nofp/libnosys.a(_exit.o)
 .text          0x00000000        0x0 /usr/lib/gcc/arm-none-eabi/13.2.1/thumb/v7e-m/nofp/crtend.o
 .data          0x00000000        0x0 /usr/lib/gcc/arm-none-eabi/13.2.1/thumb/v7e-m/nofp/crtend.o
 .bss           0x00000000        0x0 /usr/lib/gcc/arm-none-eabi/13.2.1/thumb/v7e-m/nofp/crtend.o
 .rodata        0x00000000       0x24 /usr/lib/gcc/arm-none-eabi/13.2.1/thumb/v7e-m/nofp/crtend.o
 .eh_frame      0x00000000        0x4 /usr/lib/gcc/arm-none-eabi/13.2.1/thumb/v7e-m/nofp/crtend.o
 .text          0x00000000        0x0 /usr/lib/gcc/arm-none-eabi/13.2.1/thumb/v7e-m/nofp/crtn.o
 .data          0x00000000        0x0 /usr/lib/gcc/arm-none-eabi/13.2.1/thumb/v7e-m/nofp/crtn.o
 .bss           0x00000000        0x0 /usr/lib/gcc/arm-none-eabi/13.2.1/thumb/v7e-m/nofp/crtn.o

Memory Configuration

Name             Origin             Length             Attributes
RAM              0x20000000         0x00008000         xrw
FLASH            0x08000000         0x0001f800         xr
DATA             0x0801f800         0x00000800         xr
*default*        0x00000000         0xffffffff

Linker script and memory map

LOAD /usr/lib/gcc/arm-none-eabi/13.2.1/thumb/v7e-m/nofp/crti.o
LOAD /usr/lib/gcc/arm-none-eabi/13.2.1/thumb/v7e-m/nofp/crtbegin.o
LOAD /usr/lib/gcc/arm-none-eabi/13.2.1/../../../arm-none-eabi/lib/thumb/v7e-m/nofp/crt0.o
LOAD Build_STM32G431_Slcan_WeActStudioV2/main.o
LOAD Build_STM32G431_Slcan_WeActStudioV2/system_STM32G4xx.o
LOAD Build_STM32G431_Slcan_WeActStudioV2/system.o
LOAD Build_STM32G431_Slcan_WeActStudioV2/interrupts.o
LOAD Build_STM32G431_Slcan_WeActStudioV2/can.o
LOAD Build_STM32G431_Slcan_WeActStudioV2/error.o
LOAD Build_STM32G431_Slcan_WeActStudioV2/led.o
LOAD Build_STM32G431_Slcan_WeActStudioV2/dfu.o
LOAD Build_STM32G431_Slcan_WeActStudioV2/utils.o
LOAD Build_STM32G431_Slcan_WeActStudioV2/usb_ctrlreq.o
LOAD Build_STM32G431_Slcan_WeActStudioV2/usb_ioreq.o
LOAD Build_STM32G431_Slcan_WeActStudioV2/usb_core.o
LOAD Build_STM32G431_Slcan_WeActStudioV2/usb_lowlevel.o
LOAD Build_STM32G431_Slcan_WeActStudioV2/startup_STM32G431.o
LOAD Build_STM32G431_Slcan_WeActStudioV2/Slcan/control.o
LOAD Build_STM32G431_Slcan_WeActStudioV2/Slcan/buffer.o
LOAD Build_STM32G431_Slcan_WeActStudioV2/Slcan/usb_class.o
LOAD Build_STM32G431_Slcan_WeActStudioV2/Slcan/usb_interface.o
LOAD Build_STM32G431_Slcan_WeActStudioV2/STM32Cube/libstm32cube.a
LOAD /usr/lib/gcc/arm-none-eabi/13.2.1/../../../arm-none-eabi/lib/thumb/v7e-m/nofp/libc_nano.a
LOAD /usr/lib/gcc/arm-none-eabi/13.2.1/../../../arm-none-eabi/lib/thumb/v7e-m/nofp/libm.a
LOAD /usr/lib/gcc/arm-none-eabi/13.2.1/../../../arm-none-eabi/lib/thumb/v7e-m/nofp/libnosys.a
START GROUP
LOAD /usr/lib/gcc/arm-none-eabi/13.2.1/thumb/v7e-m/nofp/libgcc.a
LOAD /usr/lib/gcc/arm-none-eabi/13.2.1/../../../arm-none-eabi/lib/thumb/v7e-m/nofp/libg_nano.a
LOAD /usr/lib/gcc/arm-none-eabi/13.2.1/../../../arm-none-eabi/lib/thumb/v7e-m/nofp/libc_nano.a
END GROUP
START GROUP
LOAD /usr/lib/gcc/arm-none-eabi/13.2.1/thumb/v7e-m/nofp/libgcc.a
LOAD /usr/lib/gcc/arm-none-eabi/13.2.1/../../../arm-none-eabi/lib/thumb/v7e-m/nofp/libc_nano.a
LOAD /usr/lib/gcc/arm-none-eabi/13.2.1/../../../arm-none-eabi/lib/thumb/v7e-m/nofp/libnosys.a
END GROUP
START GROUP
LOAD /usr/lib/gcc/arm-none-eabi/13.2.1/thumb/v7e-m/nofp/libgcc.a
LOAD /usr/lib/gcc/arm-none-eabi/13.2.1/../../../arm-none-eabi/lib/thumb/v7e-m/nofp/libc_nano.a
LOAD /usr/lib/gcc/arm-none-eabi/13.2.1/../../../arm-none-eabi/lib/thumb/v7e-m/nofp/libnosys.a
END GROUP
LOAD /usr/lib/gcc/arm-none-eabi/13.2.1/thumb/v7e-m/nofp/crtend.o
LOAD /usr/lib/gcc/arm-none-eabi/13.2.1/thumb/v7e-m/nofp/crtn.o
                0x20008000                        _estack = 0x20008000
                0x00000200                        _Min_Heap_Size = 0x200
                0x00000400                        _Min_Stack_Size = 0x400

.isr_vector     0x08000000      0x1d8
                0x08000000                        . = ALIGN (0x4)
 *(.isr_vector)
 .isr_vector    0x08000000      0x1d8 Build_STM32G431_Slcan_WeActStudioV2/startup_STM32G431.o
                0x08000000                g_pfnVectors
                0x080001d8                        . = ALIGN (0x4)

.text           0x08000200     0x98e4
                0x08000200                        . = ALIGN (0x4)
 *(.text)
 .text          0x08000200       0x88 /usr/lib/gcc/arm-none-eabi/13.2.1/thumb/v7e-m/nofp/crtbegin.o
 .text          0x08000288       0x80 /usr/lib/gcc/arm-none-eabi/13.2.1/../../../arm-none-eabi/lib/thumb/v7e-m/nofp/libc_nano.a(libc_a-sprintf.o)
                0x08000288                _siprintf_r
                0x08000288                _sprintf_r
                0x080002c4                sprintf
                0x080002c4                siprintf
 .text          0x08000308       0xbc /usr/lib/gcc/arm-none-eabi/13.2.1/../../../arm-none-eabi/lib/thumb/v7e-m/nofp/libc_nano.a(libc_a-strcpy.o)
                0x08000308                strcpy
 .text          0x080003c4      0x400 /usr/lib/gcc/arm-none-eabi/13.2.1/../../../arm-none-eabi/lib/thumb/v7e-m/nofp/libc_nano.a(libc_a-nano-svfprintf.o)
                0x080003c4                __ssputs_r
                0x08000484                __ssprint_r
                0x0800058c                _svfprintf_r
                0x0800058c                _svfiprintf_r
 .text          0x080007c4       0x50 /usr/lib/gcc/arm-none-eabi/13.2.1/../../../arm-none-eabi/lib/thumb/v7e-m/nofp/libc_nano.a(libc_a-init.o)
                0x080007c4                __libc_init_array
 *fill*         0x08000814       0x2c 
 .text          0x08000840       0xd8 /usr/lib/gcc/arm-none-eabi/13.2.1/../../../arm-none-eabi/lib/thumb/v7e-m/nofp/libc_nano.a(libc_a-strlen.o)
                0x08000840                strlen
 .text          0x08000918       0xa4 /usr/lib/gcc/arm-none-eabi/13.2.1/../../../arm-none-eabi/lib/thumb/v7e-m/nofp/libc_nano.a(libc_a-memset.o)
                0x08000918                memset
 .text          0x080009bc      0x148 /usr/lib/gcc/arm-none-eabi/13.2.1/../../../arm-none-eabi/lib/thumb/v7e-m/nofp/libc_nano.a(libc_a-mallocr.o)
                0x08000a04                _malloc_r
 .text          0x08000b04       0xbc /usr/lib/gcc/arm-none-eabi/13.2.1/../../../arm-none-eabi/lib/thumb/v7e-m/nofp/libc_nano.a(libc_a-freer.o)
                0x08000b04                _free_r
 .text          0x08000bc0      0x100 /usr/lib/gcc/arm-none-eabi/13.2.1/../../../arm-none-eabi/lib/thumb/v7e-m/nofp/libc_nano.a(libc_a-memmove.o)
                0x08000bc0                memmove
 .text          0x08000cc0       0xa0 /usr/lib/gcc/arm-none-eabi/13.2.1/../../../arm-none-eabi/lib/thumb/v7e-m/nofp/libc_nano.a(libc_a-memchr.o)
                0x08000cc0                memchr
 .text          0x08000d60      0x134 /usr/lib/gcc/arm-none-eabi/13.2.1/../../../arm-none-eabi/lib/thumb/v7e-m/nofp/libc_nano.a(libc_a-memcpy.o)
                0x08000d60                memcpy
 .text          0x08000e94       0x64 /usr/lib/gcc/arm-none-eabi/13.2.1/../../../arm-none-eabi/lib/thumb/v7e-m/nofp/libc_nano.a(libc_a-reallocr.o)
                0x08000e94                _realloc_r
 .text          0x08000ef8      0x3a8 /usr/lib/gcc/arm-none-eabi/13.2.1/../../../arm-none-eabi/lib/thumb/v7e-m/nofp/libc_nano.a(libc_a-nano-vfprintf_i.o)
                0x08000ef8                _printf_common
                0x0800101c                _printf_i
 .text          0x080012a0        0x8 /usr/lib/gcc/arm-none-eabi/13.2.1/../../../arm-none-eabi/lib/thumb/v7e-m/nofp/libc_nano.a(libc_a-mlock.o)
                0x080012a0                __malloc_lock
                0x080012a4                __malloc_unlock
 .text          0x080012a8       0x8c /usr/lib/gcc/arm-none-eabi/13.2.1/../../../arm-none-eabi/lib/thumb/v7e-m/nofp/libc_nano.a(libc_a-strncmp.o)
                0x080012a8                strncmp
 *fill*         0x08001334        0xc 
 .text          0x08001340      0x2e0 /usr/lib/gcc/arm-none-eabi/13.2.1/../../../arm-none-eabi/lib/thumb/v7e-m/nofp/libc_nano.a(libc_a-strcmp.o)
                0x08001340                strcmp
 .text          0x08001620       0x5c /usr/lib/gcc/arm-none-eabi/13.2.1/../../../arm-none-eabi/lib/thumb/v7e-m/nofp/libc_nano.a(libc_a-memcmp.o)
                0x08001620                memcmp
 .text          0x0800167c       0x24 /usr/lib/gcc/arm-none-eabi/13.2.1/../../../arm-none-eabi/lib/thumb/v7e-m/nofp/libc_nano.a(libc_a-sbrkr.o)
                0x0800167c                _sbrk_r
 .text          0x080016a0       0x10 /usr/lib/gcc/arm-none-eabi/13.2.1/../../../arm-none-eabi/lib/thumb/v7e-m/nofp/libc_nano.a(libc_a-msizer.o)
                0x080016a0                _malloc_usable_size_r
 .text          0x080016b0       0x1c /usr/lib/gcc/arm-none-eabi/13.2.1/../../../arm-none-eabi/lib/thumb/v7e-m/nofp/libnosys.a(sbrk.o)
                0x080016b0                _sbrk
 *(.text*)
 .text.startup.main
                0x080016cc       0xb0 Build_STM32G431_Slcan_WeActStudioV2/main.o
                0x080016cc                main
 .text.SystemInit
                0x0800177c       0x10 Build_STM32G431_Slcan_WeActStudioV2/system_STM32G4xx.o
                0x0800177c                SystemInit
 .text.system_init_timestamp
                0x0800178c       0x80 Build_STM32G431_Slcan_WeActStudioV2/system.o
                0x0800178c                system_init_timestamp
 .text.HAL_FDCAN_TimestampWraparoundCallback
                0x0800180c       0x10 Build_STM32G431_Slcan_WeActStudioV2/system.o
                0x0800180c                HAL_FDCAN_TimestampWraparoundCallback
 .text.system_reset_timestamps
                0x0800181c       0x14 Build_STM32G431_Slcan_WeActStudioV2/system.o
                0x0800181c                system_reset_timestamps
 .text.system_get_mcu_serie
                0x08001830       0x2c Build_STM32G431_Slcan_WeActStudioV2/system.o
                0x08001830                system_get_mcu_serie
 .text.system_get_can_clock
                0x0800185c        0xc Build_STM32G431_Slcan_WeActStudioV2/system.o
                0x0800185c                system_get_can_clock
 .text.system_get_timewrap
                0x08001868        0xc Build_STM32G431_Slcan_WeActStudioV2/system.o
                0x08001868                system_get_timewrap
 .text.system_is_option_enabled
                0x08001874       0x5c Build_STM32G431_Slcan_WeActStudioV2/system.o
                0x08001874                system_is_option_enabled
 .text.system_set_option_bytes
                0x080018d0       0xc8 Build_STM32G431_Slcan_WeActStudioV2/system.o
                0x080018d0                system_set_option_bytes
 .text.system_init
                0x08001998      0x144 Build_STM32G431_Slcan_WeActStudioV2/system.o
                0x08001998                system_init
 .text.system_get_flash_addr
                0x08001adc       0x50 Build_STM32G431_Slcan_WeActStudioV2/system.o
                0x08001adc                system_get_flash_addr
 .text.system_write_flash
                0x08001b2c      0x110 Build_STM32G431_Slcan_WeActStudioV2/system.o
                0x08001b2c                system_write_flash
 .text.NMI_Handler
                0x08001c3c        0x4 Build_STM32G431_Slcan_WeActStudioV2/interrupts.o
                0x08001c3c                NMI_Handler
 .text.HardFault_Handler
                0x08001c40        0x4 Build_STM32G431_Slcan_WeActStudioV2/interrupts.o
                0x08001c40                HardFault_Handler
 .text.MemManage_Handler
                0x08001c44        0x4 Build_STM32G431_Slcan_WeActStudioV2/interrupts.o
                0x08001c44                MemManage_Handler
 .text.BusFault_Handler
                0x08001c48        0x4 Build_STM32G431_Slcan_WeActStudioV2/interrupts.o
                0x08001c48                BusFault_Handler
 .text.UsageFault_Handler
                0x08001c4c        0x4 Build_STM32G431_Slcan_WeActStudioV2/interrupts.o
                0x08001c4c                UsageFault_Handler
 .text.SVC_Handler
                0x08001c50        0x4 Build_STM32G431_Slcan_WeActStudioV2/interrupts.o
                0x08001c50                SVC_Handler
 .text.DebugMon_Handler
                0x08001c54        0x4 Build_STM32G431_Slcan_WeActStudioV2/interrupts.o
                0x08001c54                DebugMon_Handler
 .text.PendSV_Handler
                0x08001c58        0x4 Build_STM32G431_Slcan_WeActStudioV2/interrupts.o
                0x08001c58                PendSV_Handler
 .text.SysTick_Handler
                0x08001c5c       0x10 Build_STM32G431_Slcan_WeActStudioV2/interrupts.o
                0x08001c5c                SysTick_Handler
 .text.USB_LP_IRQHandler
                0x08001c6c        0xc Build_STM32G431_Slcan_WeActStudioV2/interrupts.o
                0x08001c6c                USB_LP_IRQHandler
 .text.USB_HP_IRQHandler
                0x08001c78        0xc Build_STM32G431_Slcan_WeActStudioV2/interrupts.o
                0x08001c78                USB_HP_IRQHandler
 .text.FDCAN1_IT0_IRQHandler
                0x08001c84       0x10 Build_STM32G431_Slcan_WeActStudioV2/interrupts.o
                0x08001c84                FDCAN1_IT0_IRQHandler
 .text.can_calc_bit_count_in_frame.part.0
                0x08001c94       0xa8 Build_STM32G431_Slcan_WeActStudioV2/can.o
 .text.can_init
                0x08001d3c       0xd4 Build_STM32G431_Slcan_WeActStudioV2/can.o
                0x08001d3c                can_init
 .text.can_open
                0x08001e10      0x2ac Build_STM32G431_Slcan_WeActStudioV2/can.o
                0x08001e10                can_open
 .text.can_close_all
                0x080020bc       0x4c Build_STM32G431_Slcan_WeActStudioV2/can.o
                0x080020bc                can_close_all
 .text.can_close
                0x08002108       0x60 Build_STM32G431_Slcan_WeActStudioV2/can.o
                0x08002108                can_close
 .text.can_send_packet
                0x08002168       0xb4 Build_STM32G431_Slcan_WeActStudioV2/can.o
                0x08002168                can_send_packet
 .text.can_recover_bus_off
                0x0800221c       0x6c Build_STM32G431_Slcan_WeActStudioV2/can.o
                0x0800221c                can_recover_bus_off
 .text.can_timer_100ms
                0x08002288       0x90 Build_STM32G431_Slcan_WeActStudioV2/can.o
                0x08002288                can_timer_100ms
 .text.can_set_bit_timing
                0x08002318       0xb0 Build_STM32G431_Slcan_WeActStudioV2/can.o
                0x08002318                can_set_bit_timing
 .text.can_print_info
                0x080023c8      0x100 Build_STM32G431_Slcan_WeActStudioV2/can.o
                0x080023c8                can_print_info
 .text.can_process
                0x080024c8      0x2cc Build_STM32G431_Slcan_WeActStudioV2/can.o
                0x080024c8                can_process
 .text.can_add_host_filter
                0x08002794      0x118 Build_STM32G431_Slcan_WeActStudioV2/can.o
                0x08002794                can_add_host_filter
 .text.can_clear_host_filters
                0x080028ac       0x2c Build_STM32G431_Slcan_WeActStudioV2/can.o
                0x080028ac                can_clear_host_filters
 .text.can_set_bridge_filter
                0x080028d8        0x4 Build_STM32G431_Slcan_WeActStudioV2/can.o
                0x080028d8                can_set_bridge_filter
 .text.can_set_termination
                0x080028dc       0x40 Build_STM32G431_Slcan_WeActStudioV2/can.o
                0x080028dc                can_set_termination
 .text.can_enable_busload
                0x0800291c       0x20 Build_STM32G431_Slcan_WeActStudioV2/can.o
                0x0800291c                can_enable_busload
 .text.can_is_any_open
                0x0800293c        0xc Build_STM32G431_Slcan_WeActStudioV2/can.o
                0x0800293c                can_is_any_open
 .text.can_is_open
                0x08002948       0x14 Build_STM32G431_Slcan_WeActStudioV2/can.o
                0x08002948                can_is_open
 .text.can_is_passive
                0x0800295c       0x1c Build_STM32G431_Slcan_WeActStudioV2/can.o
                0x0800295c                can_is_passive
 .text.can_using_FD
                0x08002978       0x1c Build_STM32G431_Slcan_WeActStudioV2/can.o
                0x08002978                can_using_FD
 .text.can_is_tx_allowed
                0x08002994       0x30 Build_STM32G431_Slcan_WeActStudioV2/can.o
                0x08002994                can_is_tx_allowed
 .text.can_is_tx_fifo_free
                0x080029c4       0x1c Build_STM32G431_Slcan_WeActStudioV2/can.o
                0x080029c4                can_is_tx_fifo_free
 .text.can_get_handle
                0x080029e0       0x10 Build_STM32G431_Slcan_WeActStudioV2/can.o
                0x080029e0                can_get_handle
 .text.error_init
                0x080029f0       0x20 Build_STM32G431_Slcan_WeActStudioV2/error.o
                0x080029f0                error_init
 .text.error_assert
                0x08002a10       0x2c Build_STM32G431_Slcan_WeActStudioV2/error.o
                0x08002a10                error_assert
 .text.error_get_state
                0x08002a3c       0x14 Build_STM32G431_Slcan_WeActStudioV2/error.o
                0x08002a3c                error_get_state
 .text.error_is_report_due
                0x08002a50      0x184 Build_STM32G431_Slcan_WeActStudioV2/error.o
                0x08002a50                error_is_report_due
 .text.error_clear
                0x08002bd4       0x18 Build_STM32G431_Slcan_WeActStudioV2/error.o
                0x08002bd4                error_clear
 .text.led_init
                0x08002bec       0x8c Build_STM32G431_Slcan_WeActStudioV2/led.o
                0x08002bec                led_init
 .text.led_sleep
                0x08002c78       0x34 Build_STM32G431_Slcan_WeActStudioV2/led.o
                0x08002c78                led_sleep
 .text.led_blink_power_on
                0x08002cac       0x64 Build_STM32G431_Slcan_WeActStudioV2/led.o
                0x08002cac                led_blink_power_on
 .text.led_blink_identify
                0x08002d10       0x60 Build_STM32G431_Slcan_WeActStudioV2/led.o
                0x08002d10                led_blink_identify
 .text.led_turn_TX
                0x08002d70       0x30 Build_STM32G431_Slcan_WeActStudioV2/led.o
                0x08002d70                led_turn_TX
 .text.led_flash_TX
                0x08002da0       0x48 Build_STM32G431_Slcan_WeActStudioV2/led.o
                0x08002da0                led_flash_TX
 .text.led_flash_RX
                0x08002de8       0x54 Build_STM32G431_Slcan_WeActStudioV2/led.o
                0x08002de8                led_flash_RX
 .text.led_process
                0x08002e3c      0x170 Build_STM32G431_Slcan_WeActStudioV2/led.o
                0x08002e3c                led_process
 .text.dfu_switch_to_bootloader
                0x08002fac       0x64 Build_STM32G431_Slcan_WeActStudioV2/dfu.o
                0x08002fac                dfu_switch_to_bootloader
 .text.dfu_timer_100ms
                0x08003010       0x78 Build_STM32G431_Slcan_WeActStudioV2/dfu.o
                0x08003010                dfu_timer_100ms
 .text.utils_init
                0x08003088       0x38 Build_STM32G431_Slcan_WeActStudioV2/utils.o
                0x08003088                utils_init
 .text.utils_get_bit_limits
                0x080030c0       0x18 Build_STM32G431_Slcan_WeActStudioV2/utils.o
                0x080030c0                utils_get_bit_limits
 .text.utils_mem_is_empty
                0x080030d8       0x20 Build_STM32G431_Slcan_WeActStudioV2/utils.o
                0x080030d8                utils_mem_is_empty
 .text.utils_dlc_to_byte_count
                0x080030f8       0x1c Build_STM32G431_Slcan_WeActStudioV2/utils.o
                0x080030f8                utils_dlc_to_byte_count
 .text.utils_format_bitrate
                0x08003114       0xe8 Build_STM32G431_Slcan_WeActStudioV2/utils.o
                0x08003114                utils_format_bitrate
 .text.utils_parse_next_decimal
                0x080031fc       0x48 Build_STM32G431_Slcan_WeActStudioV2/utils.o
                0x080031fc                utils_parse_next_decimal
 .text.utils_parse_hex_delimiter
                0x08003244       0x80 Build_STM32G431_Slcan_WeActStudioV2/utils.o
                0x08003244                utils_parse_hex_delimiter
 .text.utils_parse_hex_value
                0x080032c4       0x6c Build_STM32G431_Slcan_WeActStudioV2/utils.o
                0x080032c4                utils_parse_hex_value
 .text.utils_nibble_to_ascii
                0x08003330        0xc Build_STM32G431_Slcan_WeActStudioV2/utils.o
                0x08003330                utils_nibble_to_ascii
 .text.USBD_StdDevReq
                0x0800333c      0x2f0 Build_STM32G431_Slcan_WeActStudioV2/usb_ctrlreq.o
                0x0800333c                USBD_StdDevReq
 .text.USBD_StdItfReq
                0x0800362c       0x54 Build_STM32G431_Slcan_WeActStudioV2/usb_ctrlreq.o
                0x0800362c                USBD_StdItfReq
 .text.USBD_StdEPReq
                0x08003680      0x130 Build_STM32G431_Slcan_WeActStudioV2/usb_ctrlreq.o
                0x08003680                USBD_StdEPReq
 .text.USBD_ParseSetupRequest
                0x080037b0       0x18 Build_STM32G431_Slcan_WeActStudioV2/usb_ctrlreq.o
                0x080037b0                USBD_ParseSetupRequest
 .text.USBD_CtlError
                0x080037c8       0x14 Build_STM32G431_Slcan_WeActStudioV2/usb_ctrlreq.o
                0x080037c8                USBD_CtlError
 .text.USBD_GetSerialNumber
                0x080037dc       0x20 Build_STM32G431_Slcan_WeActStudioV2/usb_ctrlreq.o
                0x080037dc                USBD_GetSerialNumber
 .text.USBD_CtlSendData
                0x080037fc       0x20 Build_STM32G431_Slcan_WeActStudioV2/usb_ioreq.o
                0x080037fc                USBD_CtlSendData
 .text.USBD_CtlContinueSendData
                0x0800381c       0x10 Build_STM32G431_Slcan_WeActStudioV2/usb_ioreq.o
                0x0800381c                USBD_CtlContinueSendData
 .text.USBD_CtlPrepareRx
                0x0800382c       0x20 Build_STM32G431_Slcan_WeActStudioV2/usb_ioreq.o
                0x0800382c                USBD_CtlPrepareRx
 .text.USBD_CtlContinueRx
                0x0800384c       0x10 Build_STM32G431_Slcan_WeActStudioV2/usb_ioreq.o
                0x0800384c                USBD_CtlContinueRx
 .text.USBD_CtlSendStatus
                0x0800385c       0x1c Build_STM32G431_Slcan_WeActStudioV2/usb_ioreq.o
                0x0800385c                USBD_CtlSendStatus
 .text.USBD_CtlReceiveStatus
                0x08003878       0x1c Build_STM32G431_Slcan_WeActStudioV2/usb_ioreq.o
                0x08003878                USBD_CtlReceiveStatus
 .text.USBD_Init
                0x08003894       0x28 Build_STM32G431_Slcan_WeActStudioV2/usb_core.o
                0x08003894                USBD_Init
 .text.USBD_SetClassConfig
                0x080038bc       0x18 Build_STM32G431_Slcan_WeActStudioV2/usb_core.o
                0x080038bc                USBD_SetClassConfig
 .text.USBD_ClrClassConfig
                0x080038d4       0x10 Build_STM32G431_Slcan_WeActStudioV2/usb_core.o
                0x080038d4                USBD_ClrClassConfig
 .text.USBD_LL_SetupStage
                0x080038e4       0x60 Build_STM32G431_Slcan_WeActStudioV2/usb_core.o
                0x080038e4                USBD_LL_SetupStage
 .text.USBD_LL_DataOutStage
                0x08003944       0x78 Build_STM32G431_Slcan_WeActStudioV2/usb_core.o
                0x08003944                USBD_LL_DataOutStage
 .text.USBD_LL_DataInStage
                0x080039bc       0xc0 Build_STM32G431_Slcan_WeActStudioV2/usb_core.o
                0x080039bc                USBD_LL_DataInStage
 .text.USBD_LL_Reset
                0x08003a7c       0x4c Build_STM32G431_Slcan_WeActStudioV2/usb_core.o
                0x08003a7c                USBD_LL_Reset
 .text.USBD_LL_SetSpeed
                0x08003ac8        0xc Build_STM32G431_Slcan_WeActStudioV2/usb_core.o
                0x08003ac8                USBD_LL_SetSpeed
 .text.USBD_LL_Suspend
                0x08003ad4       0x18 Build_STM32G431_Slcan_WeActStudioV2/usb_core.o
                0x08003ad4                USBD_LL_Suspend
 .text.USBD_LL_Resume
                0x08003aec       0x1c Build_STM32G431_Slcan_WeActStudioV2/usb_core.o
                0x08003aec                USBD_LL_Resume
 .text.USBD_LL_SOF
                0x08003b08       0x28 Build_STM32G431_Slcan_WeActStudioV2/usb_core.o
                0x08003b08                USBD_LL_SOF
 .text.HAL_PCD_MspInit
                0x08003b30       0x44 Build_STM32G431_Slcan_WeActStudioV2/usb_lowlevel.o
                0x08003b30                HAL_PCD_MspInit
 .text.HAL_PCD_SetupStageCallback
                0x08003b74       0x18 Build_STM32G431_Slcan_WeActStudioV2/usb_lowlevel.o
                0x08003b74                HAL_PCD_SetupStageCallback
 .text.HAL_PCD_DataOutStageCallback
                0x08003b8c       0x18 Build_STM32G431_Slcan_WeActStudioV2/usb_lowlevel.o
                0x08003b8c                HAL_PCD_DataOutStageCallback
 .text.HAL_PCD_DataInStageCallback
                0x08003ba4       0x18 Build_STM32G431_Slcan_WeActStudioV2/usb_lowlevel.o
                0x08003ba4                HAL_PCD_DataInStageCallback
 .text.HAL_PCD_SOFCallback
                0x08003bbc        0x4 Build_STM32G431_Slcan_WeActStudioV2/usb_lowlevel.o
                0x08003bbc                HAL_PCD_SOFCallback
 .text.HAL_PCD_ResetCallback
                0x08003bc0       0x10 Build_STM32G431_Slcan_WeActStudioV2/usb_lowlevel.o
                0x08003bc0                HAL_PCD_ResetCallback
 .text.HAL_PCD_SuspendCallback
                0x08003bd0       0x30 Build_STM32G431_Slcan_WeActStudioV2/usb_lowlevel.o
                0x08003bd0                HAL_PCD_SuspendCallback
 .text.HAL_PCD_ResumeCallback
                0x08003c00       0x2c Build_STM32G431_Slcan_WeActStudioV2/usb_lowlevel.o
                0x08003c00                HAL_PCD_ResumeCallback
 .text.HAL_PCD_Is_Suspended
                0x08003c2c        0xc Build_STM32G431_Slcan_WeActStudioV2/usb_lowlevel.o
                0x08003c2c                HAL_PCD_Is_Suspended
 .text.USBD_LL_Init
                0x08003c38       0x28 Build_STM32G431_Slcan_WeActStudioV2/usb_lowlevel.o
                0x08003c38                USBD_LL_Init
 .text.USBD_LL_ConfigurePMA
                0x08003c60       0x44 Build_STM32G431_Slcan_WeActStudioV2/usb_lowlevel.o
                0x08003c60                USBD_LL_ConfigurePMA
 .text.USBD_LL_Start
                0x08003ca4       0x18 Build_STM32G431_Slcan_WeActStudioV2/usb_lowlevel.o
                0x08003ca4                USBD_LL_Start
 .text.USBD_LL_OpenEP
                0x08003cbc       0x20 Build_STM32G431_Slcan_WeActStudioV2/usb_lowlevel.o
                0x08003cbc                USBD_LL_OpenEP
 .text.USBD_LL_CloseEP
                0x08003cdc       0x1c Build_STM32G431_Slcan_WeActStudioV2/usb_lowlevel.o
                0x08003cdc                USBD_LL_CloseEP
 .text.USBD_LL_StallEP
                0x08003cf8       0x1c Build_STM32G431_Slcan_WeActStudioV2/usb_lowlevel.o
                0x08003cf8                USBD_LL_StallEP
 .text.USBD_LL_ClearStallEP
                0x08003d14       0x1c Build_STM32G431_Slcan_WeActStudioV2/usb_lowlevel.o
                0x08003d14                USBD_LL_ClearStallEP
 .text.USBD_LL_IsStallEP
                0x08003d30       0x28 Build_STM32G431_Slcan_WeActStudioV2/usb_lowlevel.o
                0x08003d30                USBD_LL_IsStallEP
 .text.USBD_LL_SetUSBAddress
                0x08003d58       0x1c Build_STM32G431_Slcan_WeActStudioV2/usb_lowlevel.o
                0x08003d58                USBD_LL_SetUSBAddress
 .text.USBD_LL_Transmit
                0x08003d74       0x20 Build_STM32G431_Slcan_WeActStudioV2/usb_lowlevel.o
                0x08003d74                USBD_LL_Transmit
 .text.USBD_LL_PrepareReceive
                0x08003d94       0x20 Build_STM32G431_Slcan_WeActStudioV2/usb_lowlevel.o
                0x08003d94                USBD_LL_PrepareReceive
 .text.USBD_LL_GetRxDataSize
                0x08003db4        0xc Build_STM32G431_Slcan_WeActStudioV2/usb_lowlevel.o
                0x08003db4                USBD_LL_GetRxDataSize
 .text.Reset_Handler
                0x08003dc0       0x50 Build_STM32G431_Slcan_WeActStudioV2/startup_STM32G431.o
                0x08003dc0                Reset_Handler
 .text.Default_Handler
                0x08003e10        0x2 Build_STM32G431_Slcan_WeActStudioV2/startup_STM32G431.o
                0x08003e10                RTC_Alarm_IRQHandler
                0x08003e10                EXTI2_IRQHandler
                0x08003e10                TIM8_TRG_COM_IRQHandler
                0x08003e10                TIM8_CC_IRQHandler
                0x08003e10                TIM1_CC_IRQHandler
                0x08003e10                CORDIC_IRQHandler
                0x08003e10                EXTI3_IRQHandler
                0x08003e10                I2C3_ER_IRQHandler
                0x08003e10                EXTI0_IRQHandler
                0x08003e10                I2C2_EV_IRQHandler
                0x08003e10                FPU_IRQHandler
                0x08003e10                FDCAN1_IT1_IRQHandler
                0x08003e10                TIM1_UP_TIM16_IRQHandler
                0x08003e10                ADC1_2_IRQHandler
                0x08003e10                SPI1_IRQHandler
                0x08003e10                TIM6_DAC_IRQHandler
                0x08003e10                TIM8_UP_IRQHandler
                0x08003e10                DMA2_Channel2_IRQHandler
                0x08003e10                DMA1_Channel4_IRQHandler
                0x08003e10                USART3_IRQHandler
                0x08003e10                TIM4_IRQHandler
                0x08003e10                DMA2_Channel1_IRQHandler
                0x08003e10                I2C1_EV_IRQHandler
                0x08003e10                DMA1_Channel6_IRQHandler
                0x08003e10                UART4_IRQHandler
                0x08003e10                DMA2_Channel4_IRQHandler
                0x08003e10                TIM3_IRQHandler
                0x08003e10                RCC_IRQHandler
                0x08003e10                DMA1_Channel1_IRQHandler
                0x08003e10                Default_Handler
                0x08003e10                RTC_TAMP_LSECSS_IRQHandler
                0x08003e10                FMAC_IRQHandler
                0x08003e10                EXTI15_10_IRQHandler
                0x08003e10                TIM7_IRQHandler
                0x08003e10                UCPD1_IRQHandler
                0x08003e10                I2C3_EV_IRQHandler
                0x08003e10                EXTI9_5_IRQHandler
                0x08003e10                RTC_WKUP_IRQHandler
                0x08003e10                PVD_PVM_IRQHandler
                0x08003e10                SPI2_IRQHandler
                0x08003e10                DMA2_Channel5_IRQHandler
                0x08003e10                CRS_IRQHandler
                0x08003e10                DMA1_Channel5_IRQHandler
                0x08003e10                EXTI4_IRQHandler
                0x08003e10                RNG_IRQHandler
                0x08003e10                TIM1_TRG_COM_TIM17_IRQHandler
                0x08003e10                DMA1_Channel3_IRQHandler
                0x08003e10                WWDG_IRQHandler
                0x08003e10                LPUART1_IRQHandler
                0x08003e10                DMA2_Channel6_IRQHandler
                0x08003e10                TIM2_IRQHandler
                0x08003e10                COMP1_2_3_IRQHandler
                0x08003e10                EXTI1_IRQHandler
                0x08003e10                USART2_IRQHandler
                0x08003e10                I2C2_ER_IRQHandler
                0x08003e10                DMA1_Channel2_IRQHandler
                0x08003e10                TIM8_BRK_IRQHandler
                0x08003e10                FLASH_IRQHandler
                0x08003e10                USART1_IRQHandler
                0x08003e10                SPI3_IRQHandler
                0x08003e10                I2C1_ER_IRQHandler
                0x08003e10                LPTIM1_IRQHandler
                0x08003e10                DMAMUX_OVR_IRQHandler
                0x08003e10                USBWakeUp_IRQHandler
                0x08003e10                SAI1_IRQHandler
                0x08003e10                DMA2_Channel3_IRQHandler
                0x08003e10                COMP4_IRQHandler
                0x08003e10                TIM1_BRK_TIM15_IRQHandler
 *fill*         0x08003e12        0x2 
 .text.control_init
                0x08003e14       0x18 Build_STM32G431_Slcan_WeActStudioV2/Slcan/control.o
                0x08003e14                control_init
 .text.control_set_baudrate
                0x08003e2c      0x1cc Build_STM32G431_Slcan_WeActStudioV2/Slcan/control.o
                0x08003e2c                control_set_baudrate
 .text.control_host_filter
                0x08003ff8       0x94 Build_STM32G431_Slcan_WeActStudioV2/Slcan/control.o
                0x08003ff8                control_host_filter
 .text.control_bridge_filter
                0x0800408c       0xec Build_STM32G431_Slcan_WeActStudioV2/Slcan/control.o
                0x0800408c                control_bridge_filter
 .text.control_parse_flash
                0x08004178      0x120 Build_STM32G431_Slcan_WeActStudioV2/Slcan/control.o
                0x08004178                control_parse_flash
 .text.control_parse_str
                0x08004298      0x7fc Build_STM32G431_Slcan_WeActStudioV2/Slcan/control.o
                0x08004298                control_parse_str
 .text.control_parse_command
                0x08004a94       0x80 Build_STM32G431_Slcan_WeActStudioV2/Slcan/control.o
                0x08004a94                control_parse_command
 .text.control_process
                0x08004b14       0x48 Build_STM32G431_Slcan_WeActStudioV2/Slcan/control.o
                0x08004b14                control_process
 .text.control_report_busload
                0x08004b5c       0x28 Build_STM32G431_Slcan_WeActStudioV2/Slcan/control.o
                0x08004b5c                control_report_busload
 .text.control_send_debug_mesg
                0x08004b84       0x50 Build_STM32G431_Slcan_WeActStudioV2/Slcan/control.o
                0x08004b84                control_send_debug_mesg
 .text.buf_init
                0x08004bd4        0xc Build_STM32G431_Slcan_WeActStudioV2/Slcan/buffer.o
                0x08004bd4                buf_init
 .text.buf_clear_can_buffer
                0x08004be0       0x38 Build_STM32G431_Slcan_WeActStudioV2/Slcan/buffer.o
                0x08004be0                buf_clear_can_buffer
 .text.buf_process
                0x08004c18      0x1f8 Build_STM32G431_Slcan_WeActStudioV2/Slcan/buffer.o
                0x08004c18                buf_process
 .text.buf_enqueue_cdc
                0x08004e10       0x4c Build_STM32G431_Slcan_WeActStudioV2/Slcan/buffer.o
                0x08004e10                buf_enqueue_cdc
 .text.buf_store_tx_packet
                0x08004e5c       0xf8 Build_STM32G431_Slcan_WeActStudioV2/Slcan/buffer.o
                0x08004e5c                buf_store_tx_packet
 .text.buf_store_rx_packet
                0x08004f54      0x1ac Build_STM32G431_Slcan_WeActStudioV2/Slcan/buffer.o
                0x08004f54                buf_store_rx_packet
 .text.buf_store_tx_echo
                0x08005100       0x60 Build_STM32G431_Slcan_WeActStudioV2/Slcan/buffer.o
                0x08005100                buf_store_tx_echo
 .text.USBD_CDC_EP0_RxReady
                0x08005160       0x2c Build_STM32G431_Slcan_WeActStudioV2/Slcan/usb_class.o
 .text.USBD_CDC_Setup
                0x0800518c       0xbc Build_STM32G431_Slcan_WeActStudioV2/Slcan/usb_class.o
 .text.USBD_CDC_Init
                0x08005248       0x5c Build_STM32G431_Slcan_WeActStudioV2/Slcan/usb_class.o
 .text.USBD_CDC_DataOut
                0x080052a4       0x30 Build_STM32G431_Slcan_WeActStudioV2/Slcan/usb_class.o
 .text.USBD_CDC_DataIn
                0x080052d4       0x54 Build_STM32G431_Slcan_WeActStudioV2/Slcan/usb_class.o
 .text.USBD_CDC_DeInit
                0x08005328       0x44 Build_STM32G431_Slcan_WeActStudioV2/Slcan/usb_class.o
 .text.USBD_ConfigureEndpoints
                0x0800536c       0x64 Build_STM32G431_Slcan_WeActStudioV2/Slcan/usb_class.o
                0x0800536c                USBD_ConfigureEndpoints
 .text.USBD_CDC_SetTxBuffer
                0x080053d0       0x10 Build_STM32G431_Slcan_WeActStudioV2/Slcan/usb_class.o
                0x080053d0                USBD_CDC_SetTxBuffer
 .text.USBD_CDC_SetRxBuffer
                0x080053e0        0xc Build_STM32G431_Slcan_WeActStudioV2/Slcan/usb_class.o
                0x080053e0                USBD_CDC_SetRxBuffer
 .text.USBD_CDC_TransmitPacket
                0x080053ec       0x3c Build_STM32G431_Slcan_WeActStudioV2/Slcan/usb_class.o
                0x080053ec                USBD_CDC_TransmitPacket
 .text.USBD_CDC_ReceivePacket
                0x08005428       0x24 Build_STM32G431_Slcan_WeActStudioV2/Slcan/usb_class.o
                0x08005428                USBD_CDC_ReceivePacket
 .text.USBD_SetupStageRequest
                0x0800544c        0x4 Build_STM32G431_Slcan_WeActStudioV2/Slcan/usb_class.o
                0x0800544c                USBD_SetupStageRequest
 .text.CDC_DeInit_FS
                0x08005450        0x4 Build_STM32G431_Slcan_WeActStudioV2/Slcan/usb_interface.o
 .text.CDC_Init_FS
                0x08005454       0x30 Build_STM32G431_Slcan_WeActStudioV2/Slcan/usb_interface.o
 .text.CDC_Control_FS
                0x08005484       0x18 Build_STM32G431_Slcan_WeActStudioV2/Slcan/usb_interface.o
 .text.CDC_Receive_FS
                0x0800549c       0x50 Build_STM32G431_Slcan_WeActStudioV2/Slcan/usb_interface.o
 .text.CDC_Transmit_FS
                0x080054ec       0x1c Build_STM32G431_Slcan_WeActStudioV2/Slcan/usb_interface.o
                0x080054ec                CDC_Transmit_FS
 .text.HAL_MspInit
                0x08005508        0x4 Build_STM32G431_Slcan_WeActStudioV2/STM32Cube/libstm32cube.a(stm32g4xx_hal.o)
                0x08005508                HAL_MspInit
 .text.HAL_MspDeInit
                0x0800550c        0x4 Build_STM32G431_Slcan_WeActStudioV2/STM32Cube/libstm32cube.a(stm32g4xx_hal.o)
                0x0800550c                HAL_MspDeInit
 .text.HAL_DeInit
                0x08005510       0x2c Build_STM32G431_Slcan_WeActStudioV2/STM32Cube/libstm32cube.a(stm32g4xx_hal.o)
                0x08005510                HAL_DeInit
 .text.HAL_InitTick
                0x0800553c       0x4c Build_STM32G431_Slcan_WeActStudioV2/STM32Cube/libstm32cube.a(stm32g4xx_hal.o)
                0x0800553c                HAL_InitTick
 .text.HAL_Init
                0x08005588       0x30 Build_STM32G431_Slcan_WeActStudioV2/STM32Cube/libstm32cube.a(stm32g4xx_hal.o)
                0x08005588                HAL_Init
 .text.HAL_IncTick
                0x080055b8       0x18 Build_STM32G431_Slcan_WeActStudioV2/STM32Cube/libstm32cube.a(stm32g4xx_hal.o)
                0x080055b8                HAL_IncTick
 .text.HAL_GetTick
                0x080055d0        0xc Build_STM32G431_Slcan_WeActStudioV2/STM32Cube/libstm32cube.a(stm32g4xx_hal.o)
                0x080055d0                HAL_GetTick
 .text.HAL_Delay
                0x080055dc       0x24 Build_STM32G431_Slcan_WeActStudioV2/STM32Cube/libstm32cube.a(stm32g4xx_hal.o)
                0x080055dc                HAL_Delay
 .text.HAL_GetHalVersion
                0x08005600        0x8 Build_STM32G431_Slcan_WeActStudioV2/STM32Cube/libstm32cube.a(stm32g4xx_hal.o)
                0x08005600                HAL_GetHalVersion
 .text.HAL_GetDEVID
                0x08005608       0x10 Build_STM32G431_Slcan_WeActStudioV2/STM32Cube/libstm32cube.a(stm32g4xx_hal.o)
                0x08005608                HAL_GetDEVID
 .text.HAL_NVIC_SetPriorityGrouping
                0x08005618       0x24 Build_STM32G431_Slcan_WeActStudioV2/STM32Cube/libstm32cube.a(stm32g4xx_hal_cortex.o)
                0x08005618                HAL_NVIC_SetPriorityGrouping
 .text.HAL_NVIC_SetPriority
                0x0800563c       0x78 Build_STM32G431_Slcan_WeActStudioV2/STM32Cube/libstm32cube.a(stm32g4xx_hal_cortex.o)
                0x0800563c                HAL_NVIC_SetPriority
 .text.HAL_NVIC_EnableIRQ
                0x080056b4       0x1c Build_STM32G431_Slcan_WeActStudioV2/STM32Cube/libstm32cube.a(stm32g4xx_hal_cortex.o)
                0x080056b4                HAL_NVIC_EnableIRQ
 .text.HAL_SYSTICK_Config
                0x080056d0       0x30 Build_STM32G431_Slcan_WeActStudioV2/STM32Cube/libstm32cube.a(stm32g4xx_hal_cortex.o)
                0x080056d0                HAL_SYSTICK_Config
 .text.HAL_SYSTICK_Callback
                0x08005700        0x4 Build_STM32G431_Slcan_WeActStudioV2/STM32Cube/libstm32cube.a(stm32g4xx_hal_cortex.o)
                0x08005700                HAL_SYSTICK_Callback
 .text.HAL_SYSTICK_IRQHandler
                0x08005704        0x8 Build_STM32G431_Slcan_WeActStudioV2/STM32Cube/libstm32cube.a(stm32g4xx_hal_cortex.o)
                0x08005704                HAL_SYSTICK_IRQHandler
 .text.HAL_FDCAN_MspInit
                0x0800570c        0x4 Build_STM32G431_Slcan_WeActStudioV2/STM32Cube/libstm32cube.a(stm32g4xx_hal_fdcan.o)
                0x0800570c                HAL_FDCAN_MspInit
 .text.HAL_FDCAN_Init
                0x08005710      0x1dc Build_STM32G431_Slcan_WeActStudioV2/STM32Cube/libstm32cube.a(stm32g4xx_hal_fdcan.o)
                0x08005710                HAL_FDCAN_Init
 .text.HAL_FDCAN_MspDeInit
                0x080058ec        0x4 Build_STM32G431_Slcan_WeActStudioV2/STM32Cube/libstm32cube.a(stm32g4xx_hal_fdcan.o)
                0x080058ec                HAL_FDCAN_MspDeInit
 .text.HAL_FDCAN_DeInit
                0x080058f0       0xfc Build_STM32G431_Slcan_WeActStudioV2/STM32Cube/libstm32cube.a(stm32g4xx_hal_fdcan.o)
                0x080058f0                HAL_FDCAN_DeInit
 .text.HAL_FDCAN_ConfigFilter
                0x080059ec       0x58 Build_STM32G431_Slcan_WeActStudioV2/STM32Cube/libstm32cube.a(stm32g4xx_hal_fdcan.o)
                0x080059ec                HAL_FDCAN_ConfigFilter
 .text.HAL_FDCAN_ConfigGlobalFilter
                0x08005a44       0x44 Build_STM32G431_Slcan_WeActStudioV2/STM32Cube/libstm32cube.a(stm32g4xx_hal_fdcan.o)
                0x08005a44                HAL_FDCAN_ConfigGlobalFilter
 .text.HAL_FDCAN_ConfigTimestampCounter
                0x08005a88       0x28 Build_STM32G431_Slcan_WeActStudioV2/STM32Cube/libstm32cube.a(stm32g4xx_hal_fdcan.o)
                0x08005a88                HAL_FDCAN_ConfigTimestampCounter
 .text.HAL_FDCAN_EnableTimestampCounter
                0x08005ab0       0x28 Build_STM32G431_Slcan_WeActStudioV2/STM32Cube/libstm32cube.a(stm32g4xx_hal_fdcan.o)
                0x08005ab0                HAL_FDCAN_EnableTimestampCounter
 .text.HAL_FDCAN_ConfigTxDelayCompensation
                0x08005ad8       0x24 Build_STM32G431_Slcan_WeActStudioV2/STM32Cube/libstm32cube.a(stm32g4xx_hal_fdcan.o)
                0x08005ad8                HAL_FDCAN_ConfigTxDelayCompensation
 .text.HAL_FDCAN_EnableTxDelayCompensation
                0x08005afc       0x24 Build_STM32G431_Slcan_WeActStudioV2/STM32Cube/libstm32cube.a(stm32g4xx_hal_fdcan.o)
                0x08005afc                HAL_FDCAN_EnableTxDelayCompensation
 .text.HAL_FDCAN_DisableTxDelayCompensation
                0x08005b20       0x24 Build_STM32G431_Slcan_WeActStudioV2/STM32Cube/libstm32cube.a(stm32g4xx_hal_fdcan.o)
                0x08005b20                HAL_FDCAN_DisableTxDelayCompensation
 .text.HAL_FDCAN_Start
                0x08005b44       0x30 Build_STM32G431_Slcan_WeActStudioV2/STM32Cube/libstm32cube.a(stm32g4xx_hal_fdcan.o)
                0x08005b44                HAL_FDCAN_Start
 .text.HAL_FDCAN_Stop
                0x08005b74       0xe0 Build_STM32G431_Slcan_WeActStudioV2/STM32Cube/libstm32cube.a(stm32g4xx_hal_fdcan.o)
                0x08005b74                HAL_FDCAN_Stop
 .text.HAL_FDCAN_AddMessageToTxFifoQ
                0x08005c54       0xc4 Build_STM32G431_Slcan_WeActStudioV2/STM32Cube/libstm32cube.a(stm32g4xx_hal_fdcan.o)
                0x08005c54                HAL_FDCAN_AddMessageToTxFifoQ
 .text.HAL_FDCAN_AbortTxRequest
                0x08005d18       0x20 Build_STM32G431_Slcan_WeActStudioV2/STM32Cube/libstm32cube.a(stm32g4xx_hal_fdcan.o)
                0x08005d18                HAL_FDCAN_AbortTxRequest
 .text.HAL_FDCAN_GetRxMessage
                0x08005d38      0x138 Build_STM32G431_Slcan_WeActStudioV2/STM32Cube/libstm32cube.a(stm32g4xx_hal_fdcan.o)
                0x08005d38                HAL_FDCAN_GetRxMessage
 .text.HAL_FDCAN_GetTxEvent
                0x08005e70       0xa4 Build_STM32G431_Slcan_WeActStudioV2/STM32Cube/libstm32cube.a(stm32g4xx_hal_fdcan.o)
                0x08005e70                HAL_FDCAN_GetTxEvent
 .text.HAL_FDCAN_GetProtocolStatus
                0x08005f14       0x50 Build_STM32G431_Slcan_WeActStudioV2/STM32Cube/libstm32cube.a(stm32g4xx_hal_fdcan.o)
                0x08005f14                HAL_FDCAN_GetProtocolStatus
 .text.HAL_FDCAN_GetErrorCounters
                0x08005f64       0x24 Build_STM32G431_Slcan_WeActStudioV2/STM32Cube/libstm32cube.a(stm32g4xx_hal_fdcan.o)
                0x08005f64                HAL_FDCAN_GetErrorCounters
 .text.HAL_FDCAN_GetTxFifoFreeLevel
                0x08005f88        0xc Build_STM32G431_Slcan_WeActStudioV2/STM32Cube/libstm32cube.a(stm32g4xx_hal_fdcan.o)
                0x08005f88                HAL_FDCAN_GetTxFifoFreeLevel
 .text.HAL_FDCAN_ConfigInterruptLines
                0x08005f94       0x2c Build_STM32G431_Slcan_WeActStudioV2/STM32Cube/libstm32cube.a(stm32g4xx_hal_fdcan.o)
                0x08005f94                HAL_FDCAN_ConfigInterruptLines
 .text.HAL_FDCAN_ActivateNotification
                0x08005fc0       0xf8 Build_STM32G431_Slcan_WeActStudioV2/STM32Cube/libstm32cube.a(stm32g4xx_hal_fdcan.o)
                0x08005fc0                HAL_FDCAN_ActivateNotification
 .text.HAL_FDCAN_TxEventFifoCallback
                0x080060b8        0x4 Build_STM32G431_Slcan_WeActStudioV2/STM32Cube/libstm32cube.a(stm32g4xx_hal_fdcan.o)
                0x080060b8                HAL_FDCAN_TxEventFifoCallback
 .text.HAL_FDCAN_RxFifo0Callback
                0x080060bc        0x4 Build_STM32G431_Slcan_WeActStudioV2/STM32Cube/libstm32cube.a(stm32g4xx_hal_fdcan.o)
                0x080060bc                HAL_FDCAN_RxFifo0Callback
 .text.HAL_FDCAN_RxFifo1Callback
                0x080060c0        0x4 Build_STM32G431_Slcan_WeActStudioV2/STM32Cube/libstm32cube.a(stm32g4xx_hal_fdcan.o)
                0x080060c0                HAL_FDCAN_RxFifo1Callback
 .text.HAL_FDCAN_TxFifoEmptyCallback
                0x080060c4        0x4 Build_STM32G431_Slcan_WeActStudioV2/STM32Cube/libstm32cube.a(stm32g4xx_hal_fdcan.o)
                0x080060c4                HAL_FDCAN_TxFifoEmptyCallback
 .text.HAL_FDCAN_TxBufferCompleteCallback
                0x080060c8        0x4 Build_STM32G431_Slcan_WeActStudioV2/STM32Cube/libstm32cube.a(stm32g4xx_hal_fdcan.o)
                0x080060c8                HAL_FDCAN_TxBufferCompleteCallback
 .text.HAL_FDCAN_TxBufferAbortCallback
                0x080060cc        0x4 Build_STM32G431_Slcan_WeActStudioV2/STM32Cube/libstm32cube.a(stm32g4xx_hal_fdcan.o)
                0x080060cc                HAL_FDCAN_TxBufferAbortCallback
 .text.HAL_FDCAN_TimeoutOccurredCallback
                0x080060d0        0x4 Build_STM32G431_Slcan_WeActStudioV2/STM32Cube/libstm32cube.a(stm32g4xx_hal_fdcan.o)
                0x080060d0                HAL_FDCAN_TimeoutOccurredCallback
 .text.HAL_FDCAN_HighPriorityMessageCallback
                0x080060d4        0x4 Build_STM32G431_Slcan_WeActStudioV2/STM32Cube/libstm32cube.a(stm32g4xx_hal_fdcan.o)
                0x080060d4                HAL_FDCAN_HighPriorityMessageCallback
 .text.HAL_FDCAN_ErrorCallback
                0x080060d8        0x4 Build_STM32G431_Slcan_WeActStudioV2/STM32Cube/libstm32cube.a(stm32g4xx_hal_fdcan.o)
                0x080060d8                HAL_FDCAN_ErrorCallback
 .text.HAL_FDCAN_ErrorStatusCallback
                0x080060dc        0x4 Build_STM32G431_Slcan_WeActStudioV2/STM32Cube/libstm32cube.a(stm32g4xx_hal_fdcan.o)
                0x080060dc                HAL_FDCAN_ErrorStatusCallback
 .text.HAL_FDCAN_IRQHandler
                0x080060e0      0x188 Build_STM32G431_Slcan_WeActStudioV2/STM32Cube/libstm32cube.a(stm32g4xx_hal_fdcan.o)
                0x080060e0                HAL_FDCAN_IRQHandler
 .text.HAL_FLASH_Program
                0x08006268      0x170 Build_STM32G431_Slcan_WeActStudioV2/STM32Cube/libstm32cube.a(stm32g4xx_hal_flash.o)
                0x08006268                HAL_FLASH_Program
 .text.HAL_FLASH_Unlock
                0x080063d8       0x28 Build_STM32G431_Slcan_WeActStudioV2/STM32Cube/libstm32cube.a(stm32g4xx_hal_flash.o)
                0x080063d8                HAL_FLASH_Unlock
 .text.HAL_FLASH_Lock
                0x08006400       0x18 Build_STM32G431_Slcan_WeActStudioV2/STM32Cube/libstm32cube.a(stm32g4xx_hal_flash.o)
                0x08006400                HAL_FLASH_Lock
 .text.HAL_FLASH_OB_Unlock
                0x08006418       0x28 Build_STM32G431_Slcan_WeActStudioV2/STM32Cube/libstm32cube.a(stm32g4xx_hal_flash.o)
                0x08006418                HAL_FLASH_OB_Unlock
 .text.HAL_FLASH_OB_Lock
                0x08006440       0x1c Build_STM32G431_Slcan_WeActStudioV2/STM32Cube/libstm32cube.a(stm32g4xx_hal_flash.o)
                0x08006440                HAL_FLASH_OB_Lock
 .text.FLASH_WaitForLastOperation
                0x0800645c       0x50 Build_STM32G431_Slcan_WeActStudioV2/STM32Cube/libstm32cube.a(stm32g4xx_hal_flash.o)
                0x0800645c                FLASH_WaitForLastOperation
 .text.HAL_FLASHEx_Erase
                0x080064ac      0x15c Build_STM32G431_Slcan_WeActStudioV2/STM32Cube/libstm32cube.a(stm32g4xx_hal_flash_ex.o)
                0x080064ac                HAL_FLASHEx_Erase
 .text.HAL_FLASHEx_OBProgram
                0x08006608      0x2f4 Build_STM32G431_Slcan_WeActStudioV2/STM32Cube/libstm32cube.a(stm32g4xx_hal_flash_ex.o)
                0x08006608                HAL_FLASHEx_OBProgram
 .text.HAL_FLASHEx_OBGetConfig
                0x080068fc       0xb8 Build_STM32G431_Slcan_WeActStudioV2/STM32Cube/libstm32cube.a(stm32g4xx_hal_flash_ex.o)
                0x080068fc                HAL_FLASHEx_OBGetConfig
 .text.FLASH_FlushCaches
                0x080069b4       0x60 Build_STM32G431_Slcan_WeActStudioV2/STM32Cube/libstm32cube.a(stm32g4xx_hal_flash_ex.o)
                0x080069b4                FLASH_FlushCaches
 .text.HAL_GPIO_Init
                0x08006a14      0x3b8 Build_STM32G431_Slcan_WeActStudioV2/STM32Cube/libstm32cube.a(stm32g4xx_hal_gpio.o)
                0x08006a14                HAL_GPIO_Init
 .text.HAL_GPIO_WritePin
                0x08006dcc        0xc Build_STM32G431_Slcan_WeActStudioV2/STM32Cube/libstm32cube.a(stm32g4xx_hal_gpio.o)
                0x08006dcc                HAL_GPIO_WritePin
 .text.HAL_PCD_Init
                0x08006dd8      0x1d4 Build_STM32G431_Slcan_WeActStudioV2/STM32Cube/libstm32cube.a(stm32g4xx_hal_pcd.o)
                0x08006dd8                HAL_PCD_Init
 .text.HAL_PCD_Start
                0x08006fac       0x2c Build_STM32G431_Slcan_WeActStudioV2/STM32Cube/libstm32cube.a(stm32g4xx_hal_pcd.o)
                0x08006fac                HAL_PCD_Start
 .text.HAL_PCD_IRQHandler
                0x08006fd8      0xb38 Build_STM32G431_Slcan_WeActStudioV2/STM32Cube/libstm32cube.a(stm32g4xx_hal_pcd.o)
                0x08006fd8                HAL_PCD_IRQHandler
 .text.HAL_PCD_SetAddress
                0x08007b10       0x28 Build_STM32G431_Slcan_WeActStudioV2/STM32Cube/libstm32cube.a(stm32g4xx_hal_pcd.o)
                0x08007b10                HAL_PCD_SetAddress
 .text.HAL_PCD_EP_Open
                0x08007b38       0x78 Build_STM32G431_Slcan_WeActStudioV2/STM32Cube/libstm32cube.a(stm32g4xx_hal_pcd.o)
                0x08007b38                HAL_PCD_EP_Open
 .text.HAL_PCD_EP_Close
                0x08007bb0       0x68 Build_STM32G431_Slcan_WeActStudioV2/STM32Cube/libstm32cube.a(stm32g4xx_hal_pcd.o)
                0x08007bb0                HAL_PCD_EP_Close
 .text.HAL_PCD_EP_Receive
                0x08007c18       0x34 Build_STM32G431_Slcan_WeActStudioV2/STM32Cube/libstm32cube.a(stm32g4xx_hal_pcd.o)
                0x08007c18                HAL_PCD_EP_Receive
 .text.HAL_PCD_EP_GetRxCount
                0x08007c4c       0x14 Build_STM32G431_Slcan_WeActStudioV2/STM32Cube/libstm32cube.a(stm32g4xx_hal_pcd.o)
                0x08007c4c                HAL_PCD_EP_GetRxCount
 .text.HAL_PCD_EP_Transmit
                0x08007c60       0x3c Build_STM32G431_Slcan_WeActStudioV2/STM32Cube/libstm32cube.a(stm32g4xx_hal_pcd.o)
                0x08007c60                HAL_PCD_EP_Transmit
 .text.HAL_PCD_EP_SetStall
                0x08007c9c       0x78 Build_STM32G431_Slcan_WeActStudioV2/STM32Cube/libstm32cube.a(stm32g4xx_hal_pcd.o)
                0x08007c9c                HAL_PCD_EP_SetStall
 .text.HAL_PCD_EP_ClrStall
                0x08007d14       0x78 Build_STM32G431_Slcan_WeActStudioV2/STM32Cube/libstm32cube.a(stm32g4xx_hal_pcd.o)
                0x08007d14                HAL_PCD_EP_ClrStall
 .text.HAL_PCDEx_PMAConfig
                0x08007d8c       0x3c Build_STM32G431_Slcan_WeActStudioV2/STM32Cube/libstm32cube.a(stm32g4xx_hal_pcd_ex.o)
                0x08007d8c                HAL_PCDEx_PMAConfig
 .text.HAL_PCDEx_ActivateLPM
                0x08007dc8       0x30 Build_STM32G431_Slcan_WeActStudioV2/STM32Cube/libstm32cube.a(stm32g4xx_hal_pcd_ex.o)
                0x08007dc8                HAL_PCDEx_ActivateLPM
 .text.HAL_PCDEx_LPM_Callback
                0x08007df8        0x4 Build_STM32G431_Slcan_WeActStudioV2/STM32Cube/libstm32cube.a(stm32g4xx_hal_pcd_ex.o)
                0x08007df8                HAL_PCDEx_LPM_Callback
 .text.HAL_PWREx_ControlVoltageScaling
                0x08007dfc       0xe4 Build_STM32G431_Slcan_WeActStudioV2/STM32Cube/libstm32cube.a(stm32g4xx_hal_pwr_ex.o)
                0x08007dfc                HAL_PWREx_ControlVoltageScaling
 .text.HAL_RCC_DeInit
                0x08007ee0       0xc0 Build_STM32G431_Slcan_WeActStudioV2/STM32Cube/libstm32cube.a(stm32g4xx_hal_rcc.o)
                0x08007ee0                HAL_RCC_DeInit
 .text.HAL_RCC_OscConfig
                0x08007fa0      0x48c Build_STM32G431_Slcan_WeActStudioV2/STM32Cube/libstm32cube.a(stm32g4xx_hal_rcc.o)
                0x08007fa0                HAL_RCC_OscConfig
 .text.HAL_RCC_GetSysClockFreq
                0x0800842c       0x5c Build_STM32G431_Slcan_WeActStudioV2/STM32Cube/libstm32cube.a(stm32g4xx_hal_rcc.o)
                0x0800842c                HAL_RCC_GetSysClockFreq
 .text.HAL_RCC_ClockConfig
                0x08008488      0x1f8 Build_STM32G431_Slcan_WeActStudioV2/STM32Cube/libstm32cube.a(stm32g4xx_hal_rcc.o)
                0x08008488                HAL_RCC_ClockConfig
 .text.HAL_RCC_GetPCLK1Freq
                0x08008680       0x24 Build_STM32G431_Slcan_WeActStudioV2/STM32Cube/libstm32cube.a(stm32g4xx_hal_rcc.o)
                0x08008680                HAL_RCC_GetPCLK1Freq
 .text.HAL_RCC_GetPCLK2Freq
                0x080086a4       0x24 Build_STM32G431_Slcan_WeActStudioV2/STM32Cube/libstm32cube.a(stm32g4xx_hal_rcc.o)
                0x080086a4                HAL_RCC_GetPCLK2Freq
 .text.HAL_RCCEx_PeriphCLKConfig
                0x080086c8      0x2a0 Build_STM32G431_Slcan_WeActStudioV2/STM32Cube/libstm32cube.a(stm32g4xx_hal_rcc_ex.o)
                0x080086c8                HAL_RCCEx_PeriphCLKConfig
 .text.HAL_RCCEx_GetPeriphCLKFreq
                0x08008968      0x44c Build_STM32G431_Slcan_WeActStudioV2/STM32Cube/libstm32cube.a(stm32g4xx_hal_rcc_ex.o)
                0x08008968                HAL_RCCEx_GetPeriphCLKFreq
 .text.HAL_RCCEx_CRSConfig
                0x08008db4       0x50 Build_STM32G431_Slcan_WeActStudioV2/STM32Cube/libstm32cube.a(stm32g4xx_hal_rcc_ex.o)
                0x08008db4                HAL_RCCEx_CRSConfig
 .text.HAL_TIM_Base_MspInit
                0x08008e04        0x4 Build_STM32G431_Slcan_WeActStudioV2/STM32Cube/libstm32cube.a(stm32g4xx_hal_tim.o)
                0x08008e04                HAL_TIM_Base_MspInit
 .text.HAL_TIM_Base_Init
                0x08008e08      0x124 Build_STM32G431_Slcan_WeActStudioV2/STM32Cube/libstm32cube.a(stm32g4xx_hal_tim.o)
                0x08008e08                HAL_TIM_Base_Init
 .text.HAL_TIM_Base_Start_IT
                0x08008f2c       0x70 Build_STM32G431_Slcan_WeActStudioV2/STM32Cube/libstm32cube.a(stm32g4xx_hal_tim.o)
                0x08008f2c                HAL_TIM_Base_Start_IT
 .text.USB_EnableGlobalInt
                0x08008f9c       0x14 Build_STM32G431_Slcan_WeActStudioV2/STM32Cube/libstm32cube.a(stm32g4xx_ll_usb.o)
                0x08008f9c                USB_EnableGlobalInt
 .text.USB_DisableGlobalInt
                0x08008fb0       0x14 Build_STM32G431_Slcan_WeActStudioV2/STM32Cube/libstm32cube.a(stm32g4xx_ll_usb.o)
                0x08008fb0                USB_DisableGlobalInt
 .text.USB_DevInit
                0x08008fc4       0x28 Build_STM32G431_Slcan_WeActStudioV2/STM32Cube/libstm32cube.a(stm32g4xx_ll_usb.o)
                0x08008fc4                USB_DevInit
 .text.USB_ActivateEndpoint
                0x08008fec      0x43c Build_STM32G431_Slcan_WeActStudioV2/STM32Cube/libstm32cube.a(stm32g4xx_ll_usb.o)
                0x08008fec                USB_ActivateEndpoint
 .text.USB_DeactivateEndpoint
                0x08009428      0x1c4 Build_STM32G431_Slcan_WeActStudioV2/STM32Cube/libstm32cube.a(stm32g4xx_ll_usb.o)
                0x08009428                USB_DeactivateEndpoint
 .text.USB_EPStartXfer
                0x080095ec      0x354 Build_STM32G431_Slcan_WeActStudioV2/STM32Cube/libstm32cube.a(stm32g4xx_ll_usb.o)
                0x080095ec                USB_EPStartXfer
 .text.USB_EPSetStall
                0x08009940       0x50 Build_STM32G431_Slcan_WeActStudioV2/STM32Cube/libstm32cube.a(stm32g4xx_ll_usb.o)
                0x08009940                USB_EPSetStall
 .text.USB_EPClearStall
                0x08009990       0x9c Build_STM32G431_Slcan_WeActStudioV2/STM32Cube/libstm32cube.a(stm32g4xx_ll_usb.o)
                0x08009990                USB_EPClearStall
 .text.USB_SetDevAddress
                0x08009a2c        0xc Build_STM32G431_Slcan_WeActStudioV2/STM32Cube/libstm32cube.a(stm32g4xx_ll_usb.o)
                0x08009a2c                USB_SetDevAddress
 .text.USB_DevConnect
                0x08009a38       0x18 Build_STM32G431_Slcan_WeActStudioV2/STM32Cube/libstm32cube.a(stm32g4xx_ll_usb.o)
                0x08009a38                USB_DevConnect
 .text.USB_ReadInterrupts
                0x08009a50        0x8 Build_STM32G431_Slcan_WeActStudioV2/STM32Cube/libstm32cube.a(stm32g4xx_ll_usb.o)
                0x08009a50                USB_ReadInterrupts
 .text.USB_WritePMA
                0x08009a58       0x20 Build_STM32G431_Slcan_WeActStudioV2/STM32Cube/libstm32cube.a(stm32g4xx_ll_usb.o)
                0x08009a58                USB_WritePMA
 .text.USB_ReadPMA
                0x08009a78       0x54 Build_STM32G431_Slcan_WeActStudioV2/STM32Cube/libstm32cube.a(stm32g4xx_ll_usb.o)
                0x08009a78                USB_ReadPMA
 *(.glue_7)
 .glue_7        0x08009acc        0x0 linker stubs
 *(.glue_7t)
 .glue_7t       0x08009acc        0x0 linker stubs
 *(.eh_frame)
 .eh_frame      0x08009acc        0x0 /usr/lib/gcc/arm-none-eabi/13.2.1/thumb/v7e-m/nofp/crtbegin.o
 *(.init)
 .init          0x08009acc        0x4 /usr/lib/gcc/arm-none-eabi/13.2.1/thumb/v7e-m/nofp/crti.o
                0x08009acc                _init
 .init          0x08009ad0        0x8 /usr/lib/gcc/arm-none-eabi/13.2.1/thumb/v7e-m/nofp/crtn.o
 *(.fini)
 .fini          0x08009ad8        0x4 /usr/lib/gcc/arm-none-eabi/13.2.1/thumb/v7e-m/nofp/crti.o
                0x08009ad8                _fini
 .fini          0x08009adc        0x8 /usr/lib/gcc/arm-none-eabi/13.2.1/thumb/v7e-m/nofp/crtn.o
                0x08009ae4                        . = ALIGN (0x4)
                0x08009ae4                        _etext = .

.vfp11_veneer   0x08009ae4        0x0
 .vfp11_veneer  0x08009ae4        0x0 linker stubs

.v4_bx          0x08009ae4        0x0
 .v4_bx         0x08009ae4        0x0 linker stubs

.iplt           0x08009ae4        0x0
 .iplt          0x08009ae4        0x0 /usr/lib/gcc/arm-none-eabi/13.2.1/thumb/v7e-m/nofp/crtbegin.o

.rodata         0x08009ae4      0x320
                0x08009ae4                        . = ALIGN (0x4)
 *(.rodata)
 *(.rodata*)
 .rodata.APBPrescTable
                0x08009ae4        0x8 Build_STM32G431_Slcan_WeActStudioV2/system_STM32G4xx.o
                0x08009ae4                APBPrescTable
 .rodata.AHBPrescTable
                0x08009aec       0x10 Build_STM32G431_Slcan_WeActStudioV2/system_STM32G4xx.o
                0x08009aec                AHBPrescTable
 .rodata.can_recover_bus_off.str1.4
                0x08009afc      0x2dd Build_STM32G431_Slcan_WeActStudioV2/can.o
                                 0x47 (size before relaxing)
 .rodata.can_print_info.str1.4
                0x08009dd9       0x46 Build_STM32G431_Slcan_WeActStudioV2/can.o
 .rodata.can_process.str1.4
                0x08009dd9       0x28 Build_STM32G431_Slcan_WeActStudioV2/can.o
 .rodata.str1.4
                0x08009dd9       0x3e Build_STM32G431_Slcan_WeActStudioV2/can.o
 *fill*         0x08009dd9        0x3 
 .rodata.CSWTCH.34
                0x08009ddc       0x10 Build_STM32G431_Slcan_WeActStudioV2/can.o
 .rodata.utils_format_bitrate.str1.4
                0x08009dec       0x3a Build_STM32G431_Slcan_WeActStudioV2/utils.o
 .rodata.CSWTCH.18
                0x08009dec        0x7 Build_STM32G431_Slcan_WeActStudioV2/utils.o
 .rodata.USBD_StdDevReq.str1.4
                0x08009df3       0x47 Build_STM32G431_Slcan_WeActStudioV2/usb_ctrlreq.o
 .rodata.control_parse_str.str1.4
                0x08009df3       0xe0 Build_STM32G431_Slcan_WeActStudioV2/Slcan/control.o
 .rodata.control_parse_command.str1.4
                0x08009df3        0xa Build_STM32G431_Slcan_WeActStudioV2/Slcan/control.o
 .rodata.control_process.str1.4
                0x08009df3       0x13 Build_STM32G431_Slcan_WeActStudioV2/Slcan/control.o
 .rodata.control_report_busload.str1.4
                0x08009df3        0x5 Build_STM32G431_Slcan_WeActStudioV2/Slcan/control.o
 .rodata.control_send_debug_mesg.str1.4
                0x08009df3       0x1d Build_STM32G431_Slcan_WeActStudioV2/Slcan/control.o
 .rodata.buf_store_tx_echo.str1.4
                0x08009df3        0x7 Build_STM32G431_Slcan_WeActStudioV2/Slcan/buffer.o
 *fill*         0x08009df3        0x1 
 .rodata.DLCtoBytes
                0x08009df4       0x10 Build_STM32G431_Slcan_WeActStudioV2/STM32Cube/libstm32cube.a(stm32g4xx_hal_fdcan.o)
 .rodata.str1.4
                0x08009e04       0x13 /usr/lib/gcc/arm-none-eabi/13.2.1/../../../arm-none-eabi/lib/thumb/v7e-m/nofp/libc_nano.a(libc_a-nano-svfprintf.o)
 .rodata.str1.4
                0x08009e04       0x25 /usr/lib/gcc/arm-none-eabi/13.2.1/../../../arm-none-eabi/lib/thumb/v7e-m/nofp/libc_nano.a(libc_a-nano-vfprintf_i.o)
                0x08009e2c                        . = ALIGN (0x4)

.ARM.extab
 *(.ARM.extab* .gnu.linkonce.armextab.*)

.ARM            0x08009e04        0x8
                0x08009e04                        __exidx_start = .
 *(.ARM.exidx*)
 .ARM.exidx     0x08009e04        0x8 /usr/lib/gcc/arm-none-eabi/13.2.1/../../../arm-none-eabi/lib/thumb/v7e-m/nofp/libc_nano.a(libc_a-strlen.o)
 .ARM.exidx     0x08009e0c        0x0 /usr/lib/gcc/arm-none-eabi/13.2.1/../../../arm-none-eabi/lib/thumb/v7e-m/nofp/libc_nano.a(libc_a-memchr.o)
                                  0x8 (size before relaxing)
 .ARM.exidx     0x08009e0c        0x0 /usr/lib/gcc/arm-none-eabi/13.2.1/../../../arm-none-eabi/lib/thumb/v7e-m/nofp/libc_nano.a(libc_a-memcpy.o)
                                  0x8 (size before relaxing)
 .ARM.exidx     0x08009e0c        0x0 /usr/lib/gcc/arm-none-eabi/13.2.1/../../../arm-none-eabi/lib/thumb/v7e-m/nofp/libc_nano.a(libc_a-strcmp.o)
                                  0x8 (size before relaxing)
                0x08009e0c                        __exidx_end = .

.rel.dyn        0x08009e0c        0x0
 .rel.iplt      0x08009e0c        0x0 /usr/lib/gcc/arm-none-eabi/13.2.1/thumb/v7e-m/nofp/crtbegin.o

.preinit_array  0x08009e0c        0x0
                0x08009e0c                        PROVIDE (__preinit_array_start = .)
 *(.preinit_array*)
                0x08009e0c                        PROVIDE (__preinit_array_end = .)

.init_array     0x08009e0c        0x4
                0x08009e0c                        PROVIDE (__init_array_start = .)
 *(SORT_BY_NAME(.init_array.*))
 *(.init_array*)
 .init_array    0x08009e0c        0x4 /usr/lib/gcc/arm-none-eabi/13.2.1/thumb/v7e-m/nofp/crtbegin.o
                0x08009e10                        PROVIDE (__init_array_end = .)

.fini_array     0x08009e10        0x4
                0x08009e10                        PROVIDE (__fini_array_start = .)
 *(SORT_BY_NAME(.fini_array.*))
 *(.fini_array*)
 .fini_array    0x08009e10        0x4 /usr/lib/gcc/arm-none-eabi/13.2.1/thumb/v7e-m/nofp/crtbegin.o
                0x08009e14                        PROVIDE (__fini_array_end = .)
                0x08009e14                        _sidata = LOADADDR (.data)

.data           0x20000000      0x13c load address 0x08009e14
                0x20000000                        . = ALIGN (0x4)
                0x20000000                        _sdata = .
 *(.data)
 .data          0x20000000       0x50 /usr/lib/gcc/arm-none-eabi/13.2.1/../../../arm-none-eabi/lib/thumb/v7e-m/nofp/libc_nano.a(libc_a-impure.o)
                0x20000000                _impure_ptr
                0x20000004                _impure_data
 *(.data*)
 .data.blink_leds
                0x20000050        0x1 Build_STM32G431_Slcan_WeActStudioV2/main.o
                0x20000050                blink_leds
 *fill*         0x20000051        0x3 
 .data.SystemCoreClock
                0x20000054        0x4 Build_STM32G431_Slcan_WeActStudioV2/system_STM32G4xx.o
                0x20000054                SystemCoreClock
 .data.SET_TermPins
                0x20000058        0x4 Build_STM32G431_Slcan_WeActStudioV2/can.o
                0x20000058                SET_TermPins
 .data.SET_TermPorts
                0x2000005c        0x4 Build_STM32G431_Slcan_WeActStudioV2/can.o
                0x2000005c                SET_TermPorts
 .data.SET_CanAlternates
                0x20000060        0x1 Build_STM32G431_Slcan_WeActStudioV2/can.o
                0x20000060                SET_CanAlternates
 *fill*         0x20000061        0x3 
 .data.SET_CanPins
                0x20000064        0x4 Build_STM32G431_Slcan_WeActStudioV2/can.o
                0x20000064                SET_CanPins
 .data.SET_CanPorts
                0x20000068        0x4 Build_STM32G431_Slcan_WeActStudioV2/can.o
                0x20000068                SET_CanPorts
 .data.SET_CanInterfaces
                0x2000006c        0x4 Build_STM32G431_Slcan_WeActStudioV2/can.o
                0x2000006c                SET_CanInterfaces
 .data.SET_LedRxPins
                0x20000070        0x4 Build_STM32G431_Slcan_WeActStudioV2/led.o
                0x20000070                SET_LedRxPins
 .data.SET_LedRxPorts
                0x20000074        0x4 Build_STM32G431_Slcan_WeActStudioV2/led.o
                0x20000074                SET_LedRxPorts
 .data.SET_LedTxPins
                0x20000078        0x4 Build_STM32G431_Slcan_WeActStudioV2/led.o
                0x20000078                SET_LedTxPins
 .data.SET_LedTxPorts
                0x2000007c        0x4 Build_STM32G431_Slcan_WeActStudioV2/led.o
                0x2000007c                SET_LedTxPorts
 .data.USBD_LangIDDesc
                0x20000080        0x4 Build_STM32G431_Slcan_WeActStudioV2/usb_ctrlreq.o
                0x20000080                USBD_LangIDDesc
 .data.USBD_ConfigDescFS
                0x20000084       0x43 Build_STM32G431_Slcan_WeActStudioV2/Slcan/usb_class.o
                0x20000084                USBD_ConfigDescFS
 *fill*         0x200000c7        0x1 
 .data.USBD_DeviceDesc
                0x200000c8       0x12 Build_STM32G431_Slcan_WeActStudioV2/Slcan/usb_class.o
                0x200000c8                USBD_DeviceDesc
 *fill*         0x200000da        0x2 
 .data.USBD_ClassCallbacks
                0x200000dc       0x28 Build_STM32G431_Slcan_WeActStudioV2/Slcan/usb_class.o
                0x200000dc                USBD_ClassCallbacks
 .data.USBD_InterfaceCallbacks
                0x20000104       0x10 Build_STM32G431_Slcan_WeActStudioV2/Slcan/usb_interface.o
                0x20000104                USBD_InterfaceCallbacks
 .data.uwTickFreq
                0x20000114        0x4 Build_STM32G431_Slcan_WeActStudioV2/STM32Cube/libstm32cube.a(stm32g4xx_hal.o)
                0x20000114                uwTickFreq
 .data.uwTickPrio
                0x20000118        0x4 Build_STM32G431_Slcan_WeActStudioV2/STM32Cube/libstm32cube.a(stm32g4xx_hal.o)
                0x20000118                uwTickPrio
 .data.pFlash   0x2000011c       0x20 Build_STM32G431_Slcan_WeActStudioV2/STM32Cube/libstm32cube.a(stm32g4xx_hal_flash.o)
                0x2000011c                pFlash
                0x2000013c                        . = ALIGN (0x4)
                0x2000013c                        _edata = .

.tm_clone_table
                0x2000013c        0x0 load address 0x08009f50
 .tm_clone_table
                0x2000013c        0x0 /usr/lib/gcc/arm-none-eabi/13.2.1/thumb/v7e-m/nofp/crtbegin.o
 .tm_clone_table
                0x2000013c        0x0 /usr/lib/gcc/arm-none-eabi/13.2.1/thumb/v7e-m/nofp/crtend.o

.igot.plt       0x2000013c        0x0 load address 0x08009f50
 .igot.plt      0x2000013c        0x0 /usr/lib/gcc/arm-none-eabi/13.2.1/thumb/v7e-m/nofp/crtbegin.o
                0x2000013c                        . = ALIGN (0x4)

.bss            0x20000140     0x5768 load address 0x08009f50
                0x20000140                        _sbss = .
                0x20000140                        __bss_start__ = _sbss
 *(.bss)
 .bss           0x20000140       0x1c /usr/lib/gcc/arm-none-eabi/13.2.1/thumb/v7e-m/nofp/crtbegin.o
 .bss           0x2000015c        0x8 /usr/lib/gcc/arm-none-eabi/13.2.1/../../../arm-none-eabi/lib/thumb/v7e-m/nofp/libc_nano.a(libc_a-mallocr.o)
                0x2000015c                __malloc_sbrk_start
                0x20000160                __malloc_free_list
 .bss           0x20000164      0x13c /usr/lib/gcc/arm-none-eabi/13.2.1/../../../arm-none-eabi/lib/thumb/v7e-m/nofp/libc_nano.a(libc_a-findfp.o)
                0x20000164                __sf
                0x2000029c                __stdio_exit_handler
 .bss           0x200002a0        0x4 /usr/lib/gcc/arm-none-eabi/13.2.1/../../../arm-none-eabi/lib/thumb/v7e-m/nofp/libc_nano.a(libc_a-reent.o)
                0x200002a0                errno
 .bss           0x200002a4        0x4 /usr/lib/gcc/arm-none-eabi/13.2.1/../../../arm-none-eabi/lib/thumb/v7e-m/nofp/libnosys.a(sbrk.o)
 *(.bss*)
 .bss.usb_suspend
                0x200002a8        0x1 Build_STM32G431_Slcan_WeActStudioV2/main.o
                0x200002a8                usb_suspend
 *fill*         0x200002a9        0x3 
 .bss.tick_last
                0x200002ac        0x4 Build_STM32G431_Slcan_WeActStudioV2/main.o
                0x200002ac                tick_last
 .bss.timestamp_wrap
                0x200002b0        0x4 Build_STM32G431_Slcan_WeActStudioV2/system.o
                0x200002b0                timestamp_wrap
 .bss.canfd_clock
                0x200002b4        0x4 Build_STM32G431_Slcan_WeActStudioV2/system.o
                0x200002b4                canfd_clock
 .bss.can_inst  0x200002b8      0x1a0 Build_STM32G431_Slcan_WeActStudioV2/can.o
                0x200002b8                can_inst
 .bss.GLB_UserFlags
                0x20000458        0x1 Build_STM32G431_Slcan_WeActStudioV2/can.o
                0x20000458                GLB_UserFlags
 *fill*         0x20000459        0x3 
 .bss.err_inst  0x2000045c       0x14 Build_STM32G431_Slcan_WeActStudioV2/error.o
                0x2000045c                err_inst
 .bss.led_inst  0x20000470       0x20 Build_STM32G431_Slcan_WeActStudioV2/led.o
                0x20000470                led_inst
 .bss.dfu_require_reset
                0x20000490        0x1 Build_STM32G431_Slcan_WeActStudioV2/dfu.o
 *fill*         0x20000491        0x3 
 .bss.dfu_delay_start
                0x20000494        0x4 Build_STM32G431_Slcan_WeActStudioV2/dfu.o
 .bss.dfu_sys_memory_base
                0x20000498        0x4 Build_STM32G431_Slcan_WeActStudioV2/dfu.o
 *fill*         0x2000049c        0x4 
 .bss.limits_data
                0x200004a0       0x10 Build_STM32G431_Slcan_WeActStudioV2/utils.o
                0x200004a0                limits_data
 .bss.limits_nom
                0x200004b0       0x10 Build_STM32G431_Slcan_WeActStudioV2/utils.o
                0x200004b0                limits_nom
 .bss.cfgidx.0  0x200004c0        0x1 Build_STM32G431_Slcan_WeActStudioV2/usb_ctrlreq.o
 *fill*         0x200004c1        0x3 
 .bss.USBD_StrDesc
                0x200004c4      0x200 Build_STM32G431_Slcan_WeActStudioV2/usb_ctrlreq.o
                0x200004c4                USBD_StrDesc
 .bss.USB_Handle
                0x200006c4      0x2ac Build_STM32G431_Slcan_WeActStudioV2/usb_core.o
                0x200006c4                USB_Handle
 .bss.bSuspended
                0x20000970        0x1 Build_STM32G431_Slcan_WeActStudioV2/usb_lowlevel.o
                0x20000970                bSuspended
 *fill*         0x20000971        0x3 
 .bss.PCD_Handle
                0x20000974      0x2dc Build_STM32G431_Slcan_WeActStudioV2/usb_lowlevel.o
                0x20000974                PCD_Handle
 .bss.CanMode   0x20000c50        0x4 Build_STM32G431_Slcan_WeActStudioV2/Slcan/control.o
                0x20000c50                CanMode
 .bss.slcan_str_index
                0x20000c54        0x1 Build_STM32G431_Slcan_WeActStudioV2/Slcan/buffer.o
                0x20000c54                slcan_str_index
 *fill*         0x20000c55        0x3 
 .bss.slcan_str
                0x20000c58       0xa5 Build_STM32G431_Slcan_WeActStudioV2/Slcan/buffer.o
                0x20000c58                slcan_str
 *fill*         0x20000cfd        0x3 
 .bss.buf_can_tx
                0x20000d00     0x1908 Build_STM32G431_Slcan_WeActStudioV2/Slcan/buffer.o
                0x20000d00                buf_can_tx
 .bss.buf_cdc_rx
                0x20002608      0x228 Build_STM32G431_Slcan_WeActStudioV2/Slcan/buffer.o
                0x20002608                buf_cdc_rx
 .bss.buf_cdc_tx
                0x20002830     0x3014 Build_STM32G431_Slcan_WeActStudioV2/Slcan/buffer.o
                0x20002830                buf_cdc_tx
 .bss.Class_InitDone
                0x20005844        0x1 Build_STM32G431_Slcan_WeActStudioV2/Slcan/usb_class.o
                0x20005844                Class_InitDone
 *fill*         0x20005845        0x3 
 .bss.CDC_Handle
                0x20005848       0x5c Build_STM32G431_Slcan_WeActStudioV2/Slcan/usb_class.o
                0x20005848                CDC_Handle
 .bss.uwTick    0x200058a4        0x4 Build_STM32G431_Slcan_WeActStudioV2/STM32Cube/libstm32cube.a(stm32g4xx_hal.o)
                0x200058a4                uwTick
 *(COMMON)
                0x200058a8                        . = ALIGN (0x4)
                0x200058a8                        _ebss = .
                0x200058a8                        __bss_end__ = _ebss

._user_heap_stack
                0x200058a8      0x600 load address 0x08009f50
                0x200058a8                        . = ALIGN (0x8)
                0x200058a8                        PROVIDE (end = .)
                [!provide]                        PROVIDE (_end = .)
                0x20005aa8                        . = (. + _Min_Heap_Size)
 *fill*         0x200058a8      0x200 
                0x20005ea8                        . = (. + _Min_Stack_Size)
 *fill*         0x20005aa8      0x400 
                0x20005ea8                        . = ALIGN (0x8)

/DISCARD/
 libc.a(*)
 libm.a(*)
 libgcc.a(*)

.ARM.attributes
                0x00000000       0x2a
 *(.ARM.attributes)
 .ARM.attributes
                0x00000000       0x1e /usr/lib/gcc/arm-none-eabi/13.2.1/thumb/v7e-m/nofp/crti.o
 .ARM.attributes
                0x0000001e       0x2e /usr/lib/gcc/arm-none-eabi/13.2.1/thumb/v7e-m/nofp/crtbegin.o
 .ARM.attributes
                0x0000004c       0x2e Build_STM32G431_Slcan_WeActStudioV2/main.o
 .ARM.attributes
                0x0000007a       0x2e Build_STM32G431_Slcan_WeActStudioV2/system_STM32G4xx.o
 .ARM.attributes
                0x000000a8       0x2e Build_STM32G431_Slcan_WeActStudioV2/system.o
 .ARM.attributes
                0x000000d6       0x2e Build_STM32G431_Slcan_WeActStudioV2/interrupts.o
 .ARM.attributes
                0x00000104       0x2e Build_STM32G431_Slcan_WeActStudioV2/can.o
 .ARM.attributes
                0x00000132       0x2e Build_STM32G431_Slcan_WeActStudioV2/error.o
 .ARM.attributes
                0x00000160       0x2e Build_STM32G431_Slcan_WeActStudioV2/led.o
 .ARM.attributes
                0x0000018e       0x2e Build_STM32G431_Slcan_WeActStudioV2/dfu.o
 .ARM.attributes
                0x000001bc       0x2e Build_STM32G431_Slcan_WeActStudioV2/utils.o
 .ARM.attributes
                0x000001ea       0x2e Build_STM32G431_Slcan_WeActStudioV2/usb_ctrlreq.o
 .ARM.attributes
                0x00000218       0x2e Build_STM32G431_Slcan_WeActStudioV2/usb_ioreq.o
 .ARM.attributes
                0x00000246       0x2e Build_STM32G431_Slcan_WeActStudioV2/usb_core.o
 .ARM.attributes
                0x00000274       0x2e Build_STM32G431_Slcan_WeActStudioV2/usb_lowlevel.o
 .ARM.attributes
                0x000002a2       0x21 Build_STM32G431_Slcan_WeActStudioV2/startup_STM32G431.o
 .ARM.attributes
                0x000002c3       0x2e Build_STM32G431_Slcan_WeActStudioV2/Slcan/control.o
 .ARM.attributes
                0x000002f1       0x2e Build_STM32G431_Slcan_WeActStudioV2/Slcan/buffer.o
 .ARM.attributes
                0x0000031f       0x2e Build_STM32G431_Slcan_WeActStudioV2/Slcan/usb_class.o
 .ARM.attributes
                0x0000034d       0x2e Build_STM32G431_Slcan_WeActStudioV2/Slcan/usb_interface.o
 .ARM.attributes
                0x0000037b       0x2e Build_STM32G431_Slcan_WeActStudioV2/STM32Cube/libstm32cube.a(stm32g4xx_hal.o)
 .ARM.attributes
                0x000003a9       0x2e Build_STM32G431_Slcan_WeActStudioV2/STM32Cube/libstm32cube.a(stm32g4xx_hal_cortex.o)
 .ARM.attributes
                0x000003d7       0x2e Build_STM32G431_Slcan_WeActStudioV2/STM32Cube/libstm32cube.a(stm32g4xx_hal_fdcan.o)
 .ARM.attributes
                0x00000405       0x2e Build_STM32G431_Slcan_WeActStudioV2/STM32Cube/libstm32cube.a(stm32g4xx_hal_flash.o)
 .ARM.attributes
                0x00000433       0x2e Build_STM32G431_Slcan_WeActStudioV2/STM32Cube/libstm32cube.a(stm32g4xx_hal_flash_ex.o)
 .ARM.attributes
                0x00000461       0x2e Build_STM32G431_Slcan_WeActStudioV2/STM32Cube/libstm32cube.a(stm32g4xx_hal_gpio.o)
 .ARM.attributes
                0x0000048f       0x2e Build_STM32G431_Slcan_WeActStudioV2/STM32Cube/libstm32cube.a(stm32g4xx_hal_pcd.o)
 .ARM.attributes
                0x000004bd       0x2e Build_STM32G431_Slcan_WeActStudioV2/STM32Cube/libstm32cube.a(stm32g4xx_hal_pcd_ex.o)
 .ARM.attributes
                0x000004eb       0x2e Build_STM32G431_Slcan_WeActStudioV2/STM32Cube/libstm32cube.a(stm32g4xx_hal_pwr_ex.o)
 .ARM.attributes
                0x00000519       0x2e Build_STM32G431_Slcan_WeActStudioV2/STM32Cube/libstm32cube.a(stm32g4xx_hal_rcc.o)
 .ARM.attributes
                0x00000547       0x2e Build_STM32G431_Slcan_WeActStudioV2/STM32Cube/libstm32cube.a(stm32g4xx_hal_rcc_ex.o)
 .ARM.attributes
                0x00000575       0x2e Build_STM32G431_Slcan_WeActStudioV2/STM32Cube/libstm32cube.a(stm32g4xx_hal_tim.o)
 .ARM.attributes
                0x000005a3       0x2e Build_STM32G431_Slcan_WeActStudioV2/STM32Cube/libstm32cube.a(stm32g4xx_ll_usb.o)
 .ARM.attributes
                0x000005d1       0x2e /usr/lib/gcc/arm-none-eabi/13.2.1/../../../arm-none-eabi/lib/thumb/v7e-m/nofp/libc_nano.a(libc_a-sprintf.o)
 .ARM.attributes
                0x000005ff       0x2e /usr/lib/gcc/arm-none-eabi/13.2.1/../../../arm-none-eabi/lib/thumb/v7e-m/nofp/libc_nano.a(libc_a-strcpy.o)
 .ARM.attributes
                0x0000062d       0x2e /usr/lib/gcc/arm-none-eabi/13.2.1/../../../arm-none-eabi/lib/thumb/v7e-m/nofp/libc_nano.a(libc_a-impure.o)
 .ARM.attributes
                0x0000065b       0x2e /usr/lib/gcc/arm-none-eabi/13.2.1/../../../arm-none-eabi/lib/thumb/v7e-m/nofp/libc_nano.a(libc_a-nano-svfprintf.o)
 .ARM.attributes
                0x00000689       0x2e /usr/lib/gcc/arm-none-eabi/13.2.1/../../../arm-none-eabi/lib/thumb/v7e-m/nofp/libc_nano.a(libc_a-init.o)
 .ARM.attributes
                0x000006b7       0x1c /usr/lib/gcc/arm-none-eabi/13.2.1/../../../arm-none-eabi/lib/thumb/v7e-m/nofp/libc_nano.a(libc_a-strlen.o)
 .ARM.attributes
                0x000006d3       0x2e /usr/lib/gcc/arm-none-eabi/13.2.1/../../../arm-none-eabi/lib/thumb/v7e-m/nofp/libc_nano.a(libc_a-memset.o)
 .ARM.attributes
                0x00000701       0x2e /usr/lib/gcc/arm-none-eabi/13.2.1/../../../arm-none-eabi/lib/thumb/v7e-m/nofp/libc_nano.a(libc_a-mallocr.o)
 .ARM.attributes
                0x0000072f       0x2e /usr/lib/gcc/arm-none-eabi/13.2.1/../../../arm-none-eabi/lib/thumb/v7e-m/nofp/libc_nano.a(libc_a-freer.o)
 .ARM.attributes
                0x0000075d       0x2e /usr/lib/gcc/arm-none-eabi/13.2.1/../../../arm-none-eabi/lib/thumb/v7e-m/nofp/libc_nano.a(libc_a-memmove.o)
 .ARM.attributes
                0x0000078b       0x1c /usr/lib/gcc/arm-none-eabi/13.2.1/../../../arm-none-eabi/lib/thumb/v7e-m/nofp/libc_nano.a(libc_a-memchr.o)
 .ARM.attributes
                0x000007a7       0x1c /usr/lib/gcc/arm-none-eabi/13.2.1/../../../arm-none-eabi/lib/thumb/v7e-m/nofp/libc_nano.a(libc_a-memcpy.o)
 .ARM.attributes
                0x000007c3       0x2e /usr/lib/gcc/arm-none-eabi/13.2.1/../../../arm-none-eabi/lib/thumb/v7e-m/nofp/libc_nano.a(libc_a-reallocr.o)
 .ARM.attributes
                0x000007f1       0x2e /usr/lib/gcc/arm-none-eabi/13.2.1/../../../arm-none-eabi/lib/thumb/v7e-m/nofp/libc_nano.a(libc_a-nano-vfprintf_i.o)
 .ARM.attributes
                0x0000081f       0x2e /usr/lib/gcc/arm-none-eabi/13.2.1/../../../arm-none-eabi/lib/thumb/v7e-m/nofp/libc_nano.a(libc_a-mlock.o)
 .ARM.attributes
                0x0000084d       0x2e /usr/lib/gcc/arm-none-eabi/13.2.1/../../../arm-none-eabi/lib/thumb/v7e-m/nofp/libc_nano.a(libc_a-strncmp.o)
 .ARM.attributes
                0x0000087b       0x1c /usr/lib/gcc/arm-none-eabi/13.2.1/../../../arm-none-eabi/lib/thumb/v7e-m/nofp/libc_nano.a(libc_a-strcmp.o)
 .ARM.attributes
                0x00000897       0x2e /usr/lib/gcc/arm-none-eabi/13.2.1/../../../arm-none-eabi/lib/thumb/v7e-m/nofp/libc_nano.a(libc_a-memcmp.o)
 .ARM.attributes
                0x000008c5       0x2e /usr/lib/gcc/arm-none-eabi/13.2.1/../../../arm-none-eabi/lib/thumb/v7e-m/nofp/libc_nano.a(libc_a-sbrkr.o)
 .ARM.attributes
                0x000008f3       0x2e /usr/lib/gcc/arm-none-eabi/13.2.1/../../../arm-none-eabi/lib/thumb/v7e-m/nofp/libc_nano.a(libc_a-msizer.o)
 .ARM.attributes
                0x00000921       0x2e /usr/lib/gcc/arm-none-eabi/13.2.1/../../../arm-none-eabi/lib/thumb/v7e-m/nofp/libc_nano.a(libc_a-findfp.o)
 .ARM.attributes
                0x0000094f       0x2e /usr/lib/gcc/arm-none-eabi/13.2.1/../../../arm-none-eabi/lib/thumb/v7e-m/nofp/libc_nano.a(libc_a-reent.o)
 .ARM.attributes
                0x0000097d       0x2e /usr/lib/gcc/arm-none-eabi/13.2.1/../../../arm-none-eabi/lib/thumb/v7e-m/nofp/libnosys.a(sbrk.o)
 .ARM.attributes
                0x000009ab       0x2e /usr/lib/gcc/arm-none-eabi/13.2.1/thumb/v7e-m/nofp/crtend.o
 .ARM.attributes
                0x000009d9       0x1e /usr/lib/gcc/arm-none-eabi/13.2.1/thumb/v7e-m/nofp/crtn.o
OUTPUT(Build_STM32G431_Slcan_WeActStudioV2/STM32G431_Slcan2.5_WeActStudioV2_0x260618.elf elf32-littlearm)
LOAD linker stubs
LOAD /usr/lib/gcc/arm-none-eabi/13.2.1/../../../arm-none-eabi/lib/thumb/v7e-m/nofp/libc.a
LOAD /usr/lib/gcc/arm-none-eabi/13.2.1/../../../arm-none-eabi/lib/thumb/v7e-m/nofp/libm.a
LOAD /usr/lib/gcc/arm-none-eabi/13.2.1/thumb/v7e-m/nofp/libgcc.a

.comment        0x00000000       0x26
 .comment       0x00000000       0x26 /usr/lib/gcc/arm-none-eabi/13.2.1/thumb/v7e-m/nofp/crtbegin.o
                                 0x27 (size before relaxing)
 .comment       0x00000026       0x27 Build_STM32G431_Slcan_WeActStudioV2/main.o
 .comment       0x00000026       0x27 Build_STM32G431_Slcan_WeActStudioV2/system_STM32G4xx.o
 .comment       0x00000026       0x27 Build_STM32G431_Slcan_WeActStudioV2/system.o
 .comment       0x00000026       0x27 Build_STM32G431_Slcan_WeActStudioV2/interrupts.o
 .comment       0x00000026       0x27 Build_STM32G431_Slcan_WeActStudioV2/can.o
 .comment       0x00000026       0x27 Build_STM32G431_Slcan_WeActStudioV2/error.o
 .comment       0x00000026       0x27 Build_STM32G431_Slcan_WeActStudioV2/led.o
 .comment       0x00000026       0x27 Build_STM32G431_Slcan_WeActStudioV2/dfu.o
 .comment       0x00000026       0x27 Build_STM32G431_Slcan_WeActStudioV2/utils.o
 .comment       0x00000026       0x27 Build_STM32G431_Slcan_WeActStudioV2/usb_ctrlreq.o
 .comment       0x00000026       0x27 Build_STM32G431_Slcan_WeActStudioV2/usb_ioreq.o
 .comment       0x00000026       0x27 Build_STM32G431_Slcan_WeActStudioV2/usb_core.o
 .comment       0x00000026       0x27 Build_STM32G431_Slcan_WeActStudioV2/usb_lowlevel.o
 .comment       0x00000026       0x27 Build_STM32G431_Slcan_WeActStudioV2/Slcan/control.o
 .comment       0x00000026       0x27 Build_STM32G431_Slcan_WeActStudioV2/Slcan/buffer.o
 .comment       0x00000026       0x27 Build_STM32G431_Slcan_WeActStudioV2/Slcan/usb_class.o
 .comment       0x00000026       0x27 Build_STM32G431_Slcan_WeActStudioV2/Slcan/usb_interface.o
 .comment       0x00000026       0x27 Build_STM32G431_Slcan_WeActStudioV2/STM32Cube/libstm32cube.a(stm32g4xx_hal.o)
 .comment       0x00000026       0x27 Build_STM32G431_Slcan_WeActStudioV2/STM32Cube/libstm32cube.a(stm32g4xx_hal_cortex.o)
 .comment       0x00000026       0x27 Build_STM32G431_Slcan_WeActStudioV2/STM32Cube/libstm32cube.a(stm32g4xx_hal_fdcan.o)
 .comment       0x00000026       0x27 Build_STM32G431_Slcan_WeActStudioV2/STM32Cube/libstm32cube.a(stm32g4xx_hal_flash.o)
 .comment       0x00000026       0x27 Build_STM32G431_Slcan_WeActStudioV2/STM32Cube/libstm32cube.a(stm32g4xx_hal_flash_ex.o)
 .comment       0x00000026       0x27 Build_STM32G431_Slcan_WeActStudioV2/STM32Cube/libstm32cube.a(stm32g4xx_hal_gpio.o)
 .comment       0x00000026       0x27 Build_STM32G431_Slcan_WeActStudioV2/STM32Cube/libstm32cube.a(stm32g4xx_hal_pcd.o)
 .comment       0x00000026       0x27 Build_STM32G431_Slcan_WeActStudioV2/STM32Cube/libstm32cube.a(stm32g4xx_hal_pcd_ex.o)
 .comment       0x00000026       0x27 Build_STM32G431_Slcan_WeActStudioV2/STM32Cube/libstm32cube.a(stm32g4xx_hal_pwr_ex.o)
 .comment       0x00000026       0x27 Build_STM32G431_Slcan_WeActStudioV2/STM32Cube/libstm32cube.a(stm32g4xx_hal_rcc.o)
 .comment       0x00000026       0x27 Build_STM32G431_Slcan_WeActStudioV2/STM32Cube/libstm32cube.a(stm32g4xx_hal_rcc_ex.o)
 .comment       0x00000026       0x27 Build_STM32G431_Slcan_WeActStudioV2/STM32Cube/libstm32cube.a(stm32g4xx_hal_tim.o)
 .comment       0x00000026       0x27 Build_STM32G431_Slcan_WeActStudioV2/STM32Cube/libstm32cube.a(stm32g4xx_ll_usb.o)
 .comment       0x00000026       0x27 /usr/lib/gcc/arm-none-eabi/13.2.1/../../../arm-none-eabi/lib/thumb/v7e-m/nofp/libc_nano.a(libc_a-sprintf.o)
 .comment       0x00000026       0x27 /usr/lib/gcc/arm-none-eabi/13.2.1/../../../arm-none-eabi/lib/thumb/v7e-m/nofp/libc_nano.a(libc_a-strcpy.o)
 .comment       0x00000026       0x27 /usr/lib/gcc/arm-none-eabi/13.2.1/../../../arm-none-eabi/lib/thumb/v7e-m/nofp/libc_nano.a(libc_a-impure.o)
 .comment       0x00000026       0x27 /usr/lib/gcc/arm-none-eabi/13.2.1/../../../arm-none-eabi/lib/thumb/v7e-m/nofp/libc_nano.a(libc_a-nano-svfprintf.o)
 .comment       0x00000026       0x27 /usr/lib/gcc/arm-none-eabi/13.2.1/../../../arm-none-eabi/lib/thumb/v7e-m/nofp/libc_nano.a(libc_a-init.o)
 .comment       0x00000026       0x27 /usr/lib/gcc/arm-none-eabi/13.2.1/../../../arm-none-eabi/lib/thumb/v7e-m/nofp/libc_nano.a(libc_a-memset.o)
 .comment       0x00000026       0x27 /usr/lib/gcc/arm-none-eabi/13.2.1/../../../arm-none-eabi/lib/thumb/v7e-m/nofp/libc_nano.a(libc_a-mallocr.o)
 .comment       0x00000026       0x27 /usr/lib/gcc/arm-none-eabi/13.2.1/../../../arm-none-eabi/lib/thumb/v7e-m/nofp/libc_nano.a(libc_a-freer.o)
 .comment       0x00000026       0x27 /usr/lib/gcc/arm-none-eabi/13.2.1/../../../arm-none-eabi/lib/thumb/v7e-m/nofp/libc_nano.a(libc_a-memmove.o)
 .comment       0x00000026       0x27 /usr/lib/gcc/arm-none-eabi/13.2.1/../../../arm-none-eabi/lib/thumb/v7e-m/nofp/libc_nano.a(libc_a-reallocr.o)
 .comment       0x00000026       0x27 /usr/lib/gcc/arm-none-eabi/13.2.1/../../../arm-none-eabi/lib/thumb/v7e-m/nofp/libc_nano.a(libc_a-nano-vfprintf_i.o)
 .comment       0x00000026       0x27 /usr/lib/gcc/arm-none-eabi/13.2.1/../../../arm-none-eabi/lib/thumb/v7e-m/nofp/libc_nano.a(libc_a-mlock.o)
 .comment       0x00000026       0x27 /usr/lib/gcc/arm-none-eabi/13.2.1/../../../arm-none-eabi/lib/thumb/v7e-m/nofp/libc_nano.a(libc_a-strncmp.o)
 .comment       0x00000026       0x27 /usr/lib/gcc/arm-none-eabi/13.2.1/../../../arm-none-eabi/lib/thumb/v7e-m/nofp/libc_nano.a(libc_a-memcmp.o)
 .comment       0x00000026       0x27 /usr/lib/gcc/arm-none-eabi/13.2.1/../../../arm-none-eabi/lib/thumb/v7e-m/nofp/libc_nano.a(libc_a-sbrkr.o)
 .comment       0x00000026       0x27 /usr/lib/gcc/arm-none-eabi/13.2.1/../../../arm-none-eabi/lib/thumb/v7e-m/nofp/libc_nano.a(libc_a-msizer.o)
 .comment       0x00000026       0x27 /usr/lib/gcc/arm-none-eabi/13.2.1/../../../arm-none-eabi/lib/thumb/v7e-m/nofp/libc_nano.a(libc_a-findfp.o)
 .comment       0x00000026       0x27 /usr/lib/gcc/arm-none-eabi/13.2.1/../../../arm-none-eabi/lib/thumb/v7e-m/nofp/libc_nano.a(libc_a-reent.o)
 .comment       0x00000026       0x27 /usr/lib/gcc/arm-none-eabi/13.2.1/../../../arm-none-eabi/lib/thumb/v7e-m/nofp/libnosys.a(sbrk.o)
 .comment       0x00000026       0x27 /usr/lib/gcc/arm-none-eabi/13.2.1/thumb/v7e-m/nofp/crtend.o

.debug_info     0x00000000    0x290b8
 .debug_info    0x00000000      0x34a Build_STM32G431_Slcan_WeActStudioV2/main.o
 .debug_info    0x0000034a      0x576 Build_STM32G431_Slcan_WeActStudioV2/system_STM32G4xx.o
 .debug_info    0x000008c0     0x2095 Build_STM32G431_Slcan_WeActStudioV2/system.o
 .debug_info    0x00002955      0xbac Build_STM32G431_Slcan_WeActStudioV2/interrupts.o
 .debug_info    0x00003501     0x2f44 Build_STM32G431_Slcan_WeActStudioV2/can.o
 .debug_info    0x00006445      0xb17 Build_STM32G431_Slcan_WeActStudioV2/error.o
 .debug_info    0x00006f5c      0xe6b Build_STM32G431_Slcan_WeActStudioV2/led.o
 .debug_info    0x00007dc7      0x739 Build_STM32G431_Slcan_WeActStudioV2/dfu.o
 .debug_info    0x00008500      0x69f Build_STM32G431_Slcan_WeActStudioV2/utils.o
 .debug_info    0x00008b9f      0xe9b Build_STM32G431_Slcan_WeActStudioV2/usb_ctrlreq.o
 .debug_info    0x00009a3a      0x51e Build_STM32G431_Slcan_WeActStudioV2/usb_ioreq.o
 .debug_info    0x00009f58      0x935 Build_STM32G431_Slcan_WeActStudioV2/usb_core.o
 .debug_info    0x0000a88d     0x1a04 Build_STM32G431_Slcan_WeActStudioV2/usb_lowlevel.o
 .debug_info    0x0000c291       0x30 Build_STM32G431_Slcan_WeActStudioV2/startup_STM32G431.o
 .debug_info    0x0000c2c1     0x1a83 Build_STM32G431_Slcan_WeActStudioV2/Slcan/control.o
 .debug_info    0x0000dd44      0xee7 Build_STM32G431_Slcan_WeActStudioV2/Slcan/buffer.o
 .debug_info    0x0000ec2b      0xff1 Build_STM32G431_Slcan_WeActStudioV2/Slcan/usb_class.o
 .debug_info    0x0000fc1c      0x645 Build_STM32G431_Slcan_WeActStudioV2/Slcan/usb_interface.o
 .debug_info    0x00010261      0xcc7 Build_STM32G431_Slcan_WeActStudioV2/STM32Cube/libstm32cube.a(stm32g4xx_hal.o)
 .debug_info    0x00010f28      0xfae Build_STM32G431_Slcan_WeActStudioV2/STM32Cube/libstm32cube.a(stm32g4xx_hal_cortex.o)
 .debug_info    0x00011ed6     0x1c2d Build_STM32G431_Slcan_WeActStudioV2/STM32Cube/libstm32cube.a(stm32g4xx_hal_fdcan.o)
 .debug_info    0x00013b03      0xb4e Build_STM32G431_Slcan_WeActStudioV2/STM32Cube/libstm32cube.a(stm32g4xx_hal_flash.o)
 .debug_info    0x00014651      0xcda Build_STM32G431_Slcan_WeActStudioV2/STM32Cube/libstm32cube.a(stm32g4xx_hal_flash_ex.o)
 .debug_info    0x0001532b      0x779 Build_STM32G431_Slcan_WeActStudioV2/STM32Cube/libstm32cube.a(stm32g4xx_hal_gpio.o)
 .debug_info    0x00015aa4     0x1e36 Build_STM32G431_Slcan_WeActStudioV2/STM32Cube/libstm32cube.a(stm32g4xx_hal_pcd.o)
 .debug_info    0x000178da      0x94a Build_STM32G431_Slcan_WeActStudioV2/STM32Cube/libstm32cube.a(stm32g4xx_hal_pcd_ex.o)
 .debug_info    0x00018224      0x977 Build_STM32G431_Slcan_WeActStudioV2/STM32Cube/libstm32cube.a(stm32g4xx_hal_pwr_ex.o)
 .debug_info    0x00018b9b      0xe5f Build_STM32G431_Slcan_WeActStudioV2/STM32Cube/libstm32cube.a(stm32g4xx_hal_rcc.o)
 .debug_info    0x000199fa      0xd2a Build_STM32G431_Slcan_WeActStudioV2/STM32Cube/libstm32cube.a(stm32g4xx_hal_rcc_ex.o)
 .debug_info    0x0001a724     0x4ff1 Build_STM32G431_Slcan_WeActStudioV2/STM32Cube/libstm32cube.a(stm32g4xx_hal_tim.o)
 .debug_info    0x0001f715     0x1b81 Build_STM32G431_Slcan_WeActStudioV2/STM32Cube/libstm32cube.a(stm32g4xx_ll_usb.o)
 .debug_info    0x00021296      0x87b /usr/lib/gcc/arm-none-eabi/13.2.1/../../../arm-none-eabi/lib/thumb/v7e-m/nofp/libc_nano.a(libc_a-sprintf.o)
 .debug_info    0x00021b11       0xc3 /usr/lib/gcc/arm-none-eabi/13.2.1/../../../arm-none-eabi/lib/thumb/v7e-m/nofp/libc_nano.a(libc_a-strcpy.o)
 .debug_info    0x00021bd4      0x70b /usr/lib/gcc/arm-none-eabi/13.2.1/../../../arm-none-eabi/lib/thumb/v7e-m/nofp/libc_nano.a(libc_a-impure.o)
 .debug_info    0x000222df     0x1092 /usr/lib/gcc/arm-none-eabi/13.2.1/../../../arm-none-eabi/lib/thumb/v7e-m/nofp/libc_nano.a(libc_a-nano-svfprintf.o)
 .debug_info    0x00023371      0x10b /usr/lib/gcc/arm-none-eabi/13.2.1/../../../arm-none-eabi/lib/thumb/v7e-m/nofp/libc_nano.a(libc_a-init.o)
 .debug_info    0x0002347c       0x33 /usr/lib/gcc/arm-none-eabi/13.2.1/../../../arm-none-eabi/lib/thumb/v7e-m/nofp/libc_nano.a(libc_a-strlen.o)
 .debug_info    0x000234af      0x135 /usr/lib/gcc/arm-none-eabi/13.2.1/../../../arm-none-eabi/lib/thumb/v7e-m/nofp/libc_nano.a(libc_a-memset.o)
 .debug_info    0x000235e4      0x9b6 /usr/lib/gcc/arm-none-eabi/13.2.1/../../../arm-none-eabi/lib/thumb/v7e-m/nofp/libc_nano.a(libc_a-mallocr.o)
 .debug_info    0x00023f9a      0x87f /usr/lib/gcc/arm-none-eabi/13.2.1/../../../arm-none-eabi/lib/thumb/v7e-m/nofp/libc_nano.a(libc_a-freer.o)
 .debug_info    0x00024819      0x148 /usr/lib/gcc/arm-none-eabi/13.2.1/../../../arm-none-eabi/lib/thumb/v7e-m/nofp/libc_nano.a(libc_a-memmove.o)
 .debug_info    0x00024961       0x25 /usr/lib/gcc/arm-none-eabi/13.2.1/../../../arm-none-eabi/lib/thumb/v7e-m/nofp/libc_nano.a(libc_a-memchr.o)
 .debug_info    0x00024986       0x33 /usr/lib/gcc/arm-none-eabi/13.2.1/../../../arm-none-eabi/lib/thumb/v7e-m/nofp/libc_nano.a(libc_a-memcpy.o)
 .debug_info    0x000249b9      0x8cd /usr/lib/gcc/arm-none-eabi/13.2.1/../../../arm-none-eabi/lib/thumb/v7e-m/nofp/libc_nano.a(libc_a-reallocr.o)
 .debug_info    0x00025286      0xdd7 /usr/lib/gcc/arm-none-eabi/13.2.1/../../../arm-none-eabi/lib/thumb/v7e-m/nofp/libc_nano.a(libc_a-nano-vfprintf_i.o)
 .debug_info    0x0002605d      0x71c /usr/lib/gcc/arm-none-eabi/13.2.1/../../../arm-none-eabi/lib/thumb/v7e-m/nofp/libc_nano.a(libc_a-mlock.o)
 .debug_info    0x00026779      0x108 /usr/lib/gcc/arm-none-eabi/13.2.1/../../../arm-none-eabi/lib/thumb/v7e-m/nofp/libc_nano.a(libc_a-strncmp.o)
 .debug_info    0x00026881       0x33 /usr/lib/gcc/arm-none-eabi/13.2.1/../../../arm-none-eabi/lib/thumb/v7e-m/nofp/libc_nano.a(libc_a-strcmp.o)
 .debug_info    0x000268b4      0x12b /usr/lib/gcc/arm-none-eabi/13.2.1/../../../arm-none-eabi/lib/thumb/v7e-m/nofp/libc_nano.a(libc_a-memcmp.o)
 .debug_info    0x000269df      0x778 /usr/lib/gcc/arm-none-eabi/13.2.1/../../../arm-none-eabi/lib/thumb/v7e-m/nofp/libc_nano.a(libc_a-sbrkr.o)
 .debug_info    0x00027157      0x78a /usr/lib/gcc/arm-none-eabi/13.2.1/../../../arm-none-eabi/lib/thumb/v7e-m/nofp/libc_nano.a(libc_a-msizer.o)
 .debug_info    0x000278e1      0xe8c /usr/lib/gcc/arm-none-eabi/13.2.1/../../../arm-none-eabi/lib/thumb/v7e-m/nofp/libc_nano.a(libc_a-findfp.o)
 .debug_info    0x0002876d      0x89f /usr/lib/gcc/arm-none-eabi/13.2.1/../../../arm-none-eabi/lib/thumb/v7e-m/nofp/libc_nano.a(libc_a-reent.o)
 .debug_info    0x0002900c       0xac /usr/lib/gcc/arm-none-eabi/13.2.1/../../../arm-none-eabi/lib/thumb/v7e-m/nofp/libnosys.a(sbrk.o)

.debug_abbrev   0x00000000     0x7d92
 .debug_abbrev  0x00000000      0x153 Build_STM32G431_Slcan_WeActStudioV2/main.o
 .debug_abbrev  0x00000153      0x12d Build_STM32G431_Slcan_WeActStudioV2/system_STM32G4xx.o
 .debug_abbrev  0x00000280      0x48a Build_STM32G431_Slcan_WeActStudioV2/system.o
 .debug_abbrev  0x0000070a      0x247 Build_STM32G431_Slcan_WeActStudioV2/interrupts.o
 .debug_abbrev  0x00000951      0x607 Build_STM32G431_Slcan_WeActStudioV2/can.o
 .debug_abbrev  0x00000f58      0x22a Build_STM32G431_Slcan_WeActStudioV2/error.o
 .debug_abbrev  0x00001182      0x365 Build_STM32G431_Slcan_WeActStudioV2/led.o
 .debug_abbrev  0x000014e7      0x2ce Build_STM32G431_Slcan_WeActStudioV2/dfu.o
 .debug_abbrev  0x000017b5      0x2e3 Build_STM32G431_Slcan_WeActStudioV2/utils.o
 .debug_abbrev  0x00001a98      0x3f5 Build_STM32G431_Slcan_WeActStudioV2/usb_ctrlreq.o
 .debug_abbrev  0x00001e8d      0x19c Build_STM32G431_Slcan_WeActStudioV2/usb_ioreq.o
 .debug_abbrev  0x00002029      0x322 Build_STM32G431_Slcan_WeActStudioV2/usb_core.o
 .debug_abbrev  0x0000234b      0x387 Build_STM32G431_Slcan_WeActStudioV2/usb_lowlevel.o
 .debug_abbrev  0x000026d2       0x24 Build_STM32G431_Slcan_WeActStudioV2/startup_STM32G431.o
 .debug_abbrev  0x000026f6      0x400 Build_STM32G431_Slcan_WeActStudioV2/Slcan/control.o
 .debug_abbrev  0x00002af6      0x3c0 Build_STM32G431_Slcan_WeActStudioV2/Slcan/buffer.o
 .debug_abbrev  0x00002eb6      0x399 Build_STM32G431_Slcan_WeActStudioV2/Slcan/usb_class.o
 .debug_abbrev  0x0000324f      0x2ff Build_STM32G431_Slcan_WeActStudioV2/Slcan/usb_interface.o
 .debug_abbrev  0x0000354e      0x2db Build_STM32G431_Slcan_WeActStudioV2/STM32Cube/libstm32cube.a(stm32g4xx_hal.o)
 .debug_abbrev  0x00003829      0x385 Build_STM32G431_Slcan_WeActStudioV2/STM32Cube/libstm32cube.a(stm32g4xx_hal_cortex.o)
 .debug_abbrev  0x00003bae      0x2a0 Build_STM32G431_Slcan_WeActStudioV2/STM32Cube/libstm32cube.a(stm32g4xx_hal_fdcan.o)
 .debug_abbrev  0x00003e4e      0x38d Build_STM32G431_Slcan_WeActStudioV2/STM32Cube/libstm32cube.a(stm32g4xx_hal_flash.o)
 .debug_abbrev  0x000041db      0x368 Build_STM32G431_Slcan_WeActStudioV2/STM32Cube/libstm32cube.a(stm32g4xx_hal_flash_ex.o)
 .debug_abbrev  0x00004543      0x1f7 Build_STM32G431_Slcan_WeActStudioV2/STM32Cube/libstm32cube.a(stm32g4xx_hal_gpio.o)
 .debug_abbrev  0x0000473a      0x3ee Build_STM32G431_Slcan_WeActStudioV2/STM32Cube/libstm32cube.a(stm32g4xx_hal_pcd.o)
 .debug_abbrev  0x00004b28      0x313 Build_STM32G431_Slcan_WeActStudioV2/STM32Cube/libstm32cube.a(stm32g4xx_hal_pcd_ex.o)
 .debug_abbrev  0x00004e3b      0x27f Build_STM32G431_Slcan_WeActStudioV2/STM32Cube/libstm32cube.a(stm32g4xx_hal_pwr_ex.o)
 .debug_abbrev  0x000050ba      0x350 Build_STM32G431_Slcan_WeActStudioV2/STM32Cube/libstm32cube.a(stm32g4xx_hal_rcc.o)
 .debug_abbrev  0x0000540a      0x2cc Build_STM32G431_Slcan_WeActStudioV2/STM32Cube/libstm32cube.a(stm32g4xx_hal_rcc_ex.o)
 .debug_abbrev  0x000056d6      0x3be Build_STM32G431_Slcan_WeActStudioV2/STM32Cube/libstm32cube.a(stm32g4xx_hal_tim.o)
 .debug_abbrev  0x00005a94      0x342 Build_STM32G431_Slcan_WeActStudioV2/STM32Cube/libstm32cube.a(stm32g4xx_ll_usb.o)
 .debug_abbrev  0x00005dd6      0x21c /usr/lib/gcc/arm-none-eabi/13.2.1/../../../arm-none-eabi/lib/thumb/v7e-m/nofp/libc_nano.a(libc_a-sprintf.o)
 .debug_abbrev  0x00005ff2       0x7b /usr/lib/gcc/arm-none-eabi/13.2.1/../../../arm-none-eabi/lib/thumb/v7e-m/nofp/libc_nano.a(libc_a-strcpy.o)
 .debug_abbrev  0x0000606d      0x149 /usr/lib/gcc/arm-none-eabi/13.2.1/../../../arm-none-eabi/lib/thumb/v7e-m/nofp/libc_nano.a(libc_a-impure.o)
 .debug_abbrev  0x000061b6      0x32f /usr/lib/gcc/arm-none-eabi/13.2.1/../../../arm-none-eabi/lib/thumb/v7e-m/nofp/libc_nano.a(libc_a-nano-svfprintf.o)
 .debug_abbrev  0x000064e5       0xc9 /usr/lib/gcc/arm-none-eabi/13.2.1/../../../arm-none-eabi/lib/thumb/v7e-m/nofp/libc_nano.a(libc_a-init.o)
 .debug_abbrev  0x000065ae       0x28 /usr/lib/gcc/arm-none-eabi/13.2.1/../../../arm-none-eabi/lib/thumb/v7e-m/nofp/libc_nano.a(libc_a-strlen.o)
 .debug_abbrev  0x000065d6       0xb7 /usr/lib/gcc/arm-none-eabi/13.2.1/../../../arm-none-eabi/lib/thumb/v7e-m/nofp/libc_nano.a(libc_a-memset.o)
 .debug_abbrev  0x0000668d      0x24a /usr/lib/gcc/arm-none-eabi/13.2.1/../../../arm-none-eabi/lib/thumb/v7e-m/nofp/libc_nano.a(libc_a-mallocr.o)
 .debug_abbrev  0x000068d7      0x249 /usr/lib/gcc/arm-none-eabi/13.2.1/../../../arm-none-eabi/lib/thumb/v7e-m/nofp/libc_nano.a(libc_a-freer.o)
 .debug_abbrev  0x00006b20       0xc3 /usr/lib/gcc/arm-none-eabi/13.2.1/../../../arm-none-eabi/lib/thumb/v7e-m/nofp/libc_nano.a(libc_a-memmove.o)
 .debug_abbrev  0x00006be3       0x14 /usr/lib/gcc/arm-none-eabi/13.2.1/../../../arm-none-eabi/lib/thumb/v7e-m/nofp/libc_nano.a(libc_a-memchr.o)
 .debug_abbrev  0x00006bf7       0x28 /usr/lib/gcc/arm-none-eabi/13.2.1/../../../arm-none-eabi/lib/thumb/v7e-m/nofp/libc_nano.a(libc_a-memcpy.o)
 .debug_abbrev  0x00006c1f      0x20c /usr/lib/gcc/arm-none-eabi/13.2.1/../../../arm-none-eabi/lib/thumb/v7e-m/nofp/libc_nano.a(libc_a-reallocr.o)
 .debug_abbrev  0x00006e2b      0x284 /usr/lib/gcc/arm-none-eabi/13.2.1/../../../arm-none-eabi/lib/thumb/v7e-m/nofp/libc_nano.a(libc_a-nano-vfprintf_i.o)
 .debug_abbrev  0x000070af      0x192 /usr/lib/gcc/arm-none-eabi/13.2.1/../../../arm-none-eabi/lib/thumb/v7e-m/nofp/libc_nano.a(libc_a-mlock.o)
 .debug_abbrev  0x00007241       0x92 /usr/lib/gcc/arm-none-eabi/13.2.1/../../../arm-none-eabi/lib/thumb/v7e-m/nofp/libc_nano.a(libc_a-strncmp.o)
 .debug_abbrev  0x000072d3       0x28 /usr/lib/gcc/arm-none-eabi/13.2.1/../../../arm-none-eabi/lib/thumb/v7e-m/nofp/libc_nano.a(libc_a-strcmp.o)
 .debug_abbrev  0x000072fb       0x90 /usr/lib/gcc/arm-none-eabi/13.2.1/../../../arm-none-eabi/lib/thumb/v7e-m/nofp/libc_nano.a(libc_a-memcmp.o)
 .debug_abbrev  0x0000738b      0x1da /usr/lib/gcc/arm-none-eabi/13.2.1/../../../arm-none-eabi/lib/thumb/v7e-m/nofp/libc_nano.a(libc_a-sbrkr.o)
 .debug_abbrev  0x00007565      0x196 /usr/lib/gcc/arm-none-eabi/13.2.1/../../../arm-none-eabi/lib/thumb/v7e-m/nofp/libc_nano.a(libc_a-msizer.o)
 .debug_abbrev  0x000076fb      0x408 /usr/lib/gcc/arm-none-eabi/13.2.1/../../../arm-none-eabi/lib/thumb/v7e-m/nofp/libc_nano.a(libc_a-findfp.o)
 .debug_abbrev  0x00007b03      0x1ee /usr/lib/gcc/arm-none-eabi/13.2.1/../../../arm-none-eabi/lib/thumb/v7e-m/nofp/libc_nano.a(libc_a-reent.o)
 .debug_abbrev  0x00007cf1       0xa1 /usr/lib/gcc/arm-none-eabi/13.2.1/../../../arm-none-eabi/lib/thumb/v7e-m/nofp/libnosys.a(sbrk.o)

.debug_loclists
                0x00000000    0x12865
 .debug_loclists
                0x00000000       0x27 Build_STM32G431_Slcan_WeActStudioV2/main.o
 .debug_loclists
                0x00000027       0x46 Build_STM32G431_Slcan_WeActStudioV2/system_STM32G4xx.o
 .debug_loclists
                0x0000006d      0x343 Build_STM32G431_Slcan_WeActStudioV2/system.o
 .debug_loclists
                0x000003b0     0x1983 Build_STM32G431_Slcan_WeActStudioV2/can.o
 .debug_loclists
                0x00001d33      0x15f Build_STM32G431_Slcan_WeActStudioV2/error.o
 .debug_loclists
                0x00001e92      0x6d7 Build_STM32G431_Slcan_WeActStudioV2/led.o
 .debug_loclists
                0x00002569       0xae Build_STM32G431_Slcan_WeActStudioV2/dfu.o
 .debug_loclists
                0x00002617      0x561 Build_STM32G431_Slcan_WeActStudioV2/utils.o
 .debug_loclists
                0x00002b78      0x904 Build_STM32G431_Slcan_WeActStudioV2/usb_ctrlreq.o
 .debug_loclists
                0x0000347c      0x149 Build_STM32G431_Slcan_WeActStudioV2/usb_ioreq.o
 .debug_loclists
                0x000035c5      0x2ce Build_STM32G431_Slcan_WeActStudioV2/usb_core.o
 .debug_loclists
                0x00003893      0x5c4 Build_STM32G431_Slcan_WeActStudioV2/usb_lowlevel.o
 .debug_loclists
                0x00003e57      0xb54 Build_STM32G431_Slcan_WeActStudioV2/Slcan/control.o
 .debug_loclists
                0x000049ab      0x7a2 Build_STM32G431_Slcan_WeActStudioV2/Slcan/buffer.o
 .debug_loclists
                0x0000514d      0x1d8 Build_STM32G431_Slcan_WeActStudioV2/Slcan/usb_class.o
 .debug_loclists
                0x00005325      0x13e Build_STM32G431_Slcan_WeActStudioV2/Slcan/usb_interface.o
 .debug_loclists
                0x00005463      0x173 Build_STM32G431_Slcan_WeActStudioV2/STM32Cube/libstm32cube.a(stm32g4xx_hal.o)
 .debug_loclists
                0x000055d6      0x5d5 Build_STM32G431_Slcan_WeActStudioV2/STM32Cube/libstm32cube.a(stm32g4xx_hal_cortex.o)
 .debug_loclists
                0x00005bab      0xfdd Build_STM32G431_Slcan_WeActStudioV2/STM32Cube/libstm32cube.a(stm32g4xx_hal_fdcan.o)
 .debug_loclists
                0x00006b88      0x8cd Build_STM32G431_Slcan_WeActStudioV2/STM32Cube/libstm32cube.a(stm32g4xx_hal_flash.o)
 .debug_loclists
                0x00007455      0x64d Build_STM32G431_Slcan_WeActStudioV2/STM32Cube/libstm32cube.a(stm32g4xx_hal_flash_ex.o)
 .debug_loclists
                0x00007aa2      0x4ab Build_STM32G431_Slcan_WeActStudioV2/STM32Cube/libstm32cube.a(stm32g4xx_hal_gpio.o)
 .debug_loclists
                0x00007f4d     0x11b3 Build_STM32G431_Slcan_WeActStudioV2/STM32Cube/libstm32cube.a(stm32g4xx_hal_pcd.o)
 .debug_loclists
                0x00009100      0x198 Build_STM32G431_Slcan_WeActStudioV2/STM32Cube/libstm32cube.a(stm32g4xx_hal_pcd_ex.o)
 .debug_loclists
                0x00009298      0x4b4 Build_STM32G431_Slcan_WeActStudioV2/STM32Cube/libstm32cube.a(stm32g4xx_hal_pwr_ex.o)
 .debug_loclists
                0x0000974c      0x5e3 Build_STM32G431_Slcan_WeActStudioV2/STM32Cube/libstm32cube.a(stm32g4xx_hal_rcc.o)
 .debug_loclists
                0x00009d2f      0x6e4 Build_STM32G431_Slcan_WeActStudioV2/STM32Cube/libstm32cube.a(stm32g4xx_hal_rcc_ex.o)
 .debug_loclists
                0x0000a413     0x5162 Build_STM32G431_Slcan_WeActStudioV2/STM32Cube/libstm32cube.a(stm32g4xx_hal_tim.o)
 .debug_loclists
                0x0000f575     0x1a2c Build_STM32G431_Slcan_WeActStudioV2/STM32Cube/libstm32cube.a(stm32g4xx_ll_usb.o)
 .debug_loclists
                0x00010fa1       0x88 /usr/lib/gcc/arm-none-eabi/13.2.1/../../../arm-none-eabi/lib/thumb/v7e-m/nofp/libc_nano.a(libc_a-sprintf.o)
 .debug_loclists
                0x00011029       0x2c /usr/lib/gcc/arm-none-eabi/13.2.1/../../../arm-none-eabi/lib/thumb/v7e-m/nofp/libc_nano.a(libc_a-strcpy.o)
 .debug_loclists
                0x00011055      0x56b /usr/lib/gcc/arm-none-eabi/13.2.1/../../../arm-none-eabi/lib/thumb/v7e-m/nofp/libc_nano.a(libc_a-nano-svfprintf.o)
 .debug_loclists
                0x000115c0       0x65 /usr/lib/gcc/arm-none-eabi/13.2.1/../../../arm-none-eabi/lib/thumb/v7e-m/nofp/libc_nano.a(libc_a-init.o)
 .debug_loclists
                0x00011625      0x1c2 /usr/lib/gcc/arm-none-eabi/13.2.1/../../../arm-none-eabi/lib/thumb/v7e-m/nofp/libc_nano.a(libc_a-memset.o)
 .debug_loclists
                0x000117e7      0x263 /usr/lib/gcc/arm-none-eabi/13.2.1/../../../arm-none-eabi/lib/thumb/v7e-m/nofp/libc_nano.a(libc_a-mallocr.o)
 .debug_loclists
                0x00011a4a      0x164 /usr/lib/gcc/arm-none-eabi/13.2.1/../../../arm-none-eabi/lib/thumb/v7e-m/nofp/libc_nano.a(libc_a-freer.o)
 .debug_loclists
                0x00011bae      0x233 /usr/lib/gcc/arm-none-eabi/13.2.1/../../../arm-none-eabi/lib/thumb/v7e-m/nofp/libc_nano.a(libc_a-memmove.o)
 .debug_loclists
                0x00011de1      0x102 /usr/lib/gcc/arm-none-eabi/13.2.1/../../../arm-none-eabi/lib/thumb/v7e-m/nofp/libc_nano.a(libc_a-reallocr.o)
 .debug_loclists
                0x00011ee3      0x44f /usr/lib/gcc/arm-none-eabi/13.2.1/../../../arm-none-eabi/lib/thumb/v7e-m/nofp/libc_nano.a(libc_a-nano-vfprintf_i.o)
 .debug_loclists
                0x00012332      0x139 /usr/lib/gcc/arm-none-eabi/13.2.1/../../../arm-none-eabi/lib/thumb/v7e-m/nofp/libc_nano.a(libc_a-strncmp.o)
 .debug_loclists
                0x0001246b       0xd6 /usr/lib/gcc/arm-none-eabi/13.2.1/../../../arm-none-eabi/lib/thumb/v7e-m/nofp/libc_nano.a(libc_a-memcmp.o)
 .debug_loclists
                0x00012541       0x4b /usr/lib/gcc/arm-none-eabi/13.2.1/../../../arm-none-eabi/lib/thumb/v7e-m/nofp/libc_nano.a(libc_a-sbrkr.o)
 .debug_loclists
                0x0001258c       0x59 /usr/lib/gcc/arm-none-eabi/13.2.1/../../../arm-none-eabi/lib/thumb/v7e-m/nofp/libc_nano.a(libc_a-msizer.o)
 .debug_loclists
                0x000125e5      0x1d0 /usr/lib/gcc/arm-none-eabi/13.2.1/../../../arm-none-eabi/lib/thumb/v7e-m/nofp/libc_nano.a(libc_a-findfp.o)
 .debug_loclists
                0x000127b5       0x80 /usr/lib/gcc/arm-none-eabi/13.2.1/../../../arm-none-eabi/lib/thumb/v7e-m/nofp/libc_nano.a(libc_a-reent.o)
 .debug_loclists
                0x00012835       0x30 /usr/lib/gcc/arm-none-eabi/13.2.1/../../../arm-none-eabi/lib/thumb/v7e-m/nofp/libnosys.a(sbrk.o)

.debug_aranges  0x00000000     0x1950
 .debug_aranges
                0x00000000       0x40 Build_STM32G431_Slcan_WeActStudioV2/main.o
 .debug_aranges
                0x00000040       0x28 Build_STM32G431_Slcan_WeActStudioV2/system_STM32G4xx.o
 .debug_aranges
                0x00000068       0x98 Build_STM32G431_Slcan_WeActStudioV2/system.o
 .debug_aranges
                0x00000100       0xa8 Build_STM32G431_Slcan_WeActStudioV2/interrupts.o
 .debug_aranges
                0x000001a8      0x120 Build_STM32G431_Slcan_WeActStudioV2/can.o
 .debug_aranges
                0x000002c8       0x60 Build_STM32G431_Slcan_WeActStudioV2/error.o
 .debug_aranges
                0x00000328       0x90 Build_STM32G431_Slcan_WeActStudioV2/led.o
 .debug_aranges
                0x000003b8       0x48 Build_STM32G431_Slcan_WeActStudioV2/dfu.o
 .debug_aranges
                0x00000400       0x90 Build_STM32G431_Slcan_WeActStudioV2/utils.o
 .debug_aranges
                0x00000490       0x50 Build_STM32G431_Slcan_WeActStudioV2/usb_ctrlreq.o
 .debug_aranges
                0x000004e0       0x50 Build_STM32G431_Slcan_WeActStudioV2/usb_ioreq.o
 .debug_aranges
                0x00000530       0xa8 Build_STM32G431_Slcan_WeActStudioV2/usb_core.o
 .debug_aranges
                0x000005d8      0x128 Build_STM32G431_Slcan_WeActStudioV2/usb_lowlevel.o
 .debug_aranges
                0x00000700       0x28 Build_STM32G431_Slcan_WeActStudioV2/startup_STM32G431.o
 .debug_aranges
                0x00000728       0x88 Build_STM32G431_Slcan_WeActStudioV2/Slcan/control.o
 .debug_aranges
                0x000007b0       0x70 Build_STM32G431_Slcan_WeActStudioV2/Slcan/buffer.o
 .debug_aranges
                0x00000820       0x78 Build_STM32G431_Slcan_WeActStudioV2/Slcan/usb_class.o
 .debug_aranges
                0x00000898       0x60 Build_STM32G431_Slcan_WeActStudioV2/Slcan/usb_interface.o
 .debug_aranges
                0x000008f8      0x148 Build_STM32G431_Slcan_WeActStudioV2/STM32Cube/libstm32cube.a(stm32g4xx_hal.o)
 .debug_aranges
                0x00000a40       0xb8 Build_STM32G431_Slcan_WeActStudioV2/STM32Cube/libstm32cube.a(stm32g4xx_hal_cortex.o)
 .debug_aranges
                0x00000af8      0x1f8 Build_STM32G431_Slcan_WeActStudioV2/STM32Cube/libstm32cube.a(stm32g4xx_hal_fdcan.o)
 .debug_aranges
                0x00000cf0       0x78 Build_STM32G431_Slcan_WeActStudioV2/STM32Cube/libstm32cube.a(stm32g4xx_hal_flash.o)
 .debug_aranges
                0x00000d68       0x60 Build_STM32G431_Slcan_WeActStudioV2/STM32Cube/libstm32cube.a(stm32g4xx_hal_flash_ex.o)
 .debug_aranges
                0x00000dc8       0x58 Build_STM32G431_Slcan_WeActStudioV2/STM32Cube/libstm32cube.a(stm32g4xx_hal_gpio.o)
 .debug_aranges
                0x00000e20      0x120 Build_STM32G431_Slcan_WeActStudioV2/STM32Cube/libstm32cube.a(stm32g4xx_hal_pcd.o)
 .debug_aranges
                0x00000f40       0x58 Build_STM32G431_Slcan_WeActStudioV2/STM32Cube/libstm32cube.a(stm32g4xx_hal_pcd_ex.o)
 .debug_aranges
                0x00000f98      0x140 Build_STM32G431_Slcan_WeActStudioV2/STM32Cube/libstm32cube.a(stm32g4xx_hal_pwr_ex.o)
 .debug_aranges
                0x000010d8       0x90 Build_STM32G431_Slcan_WeActStudioV2/STM32Cube/libstm32cube.a(stm32g4xx_hal_rcc.o)
 .debug_aranges
                0x00001168       0xb0 Build_STM32G431_Slcan_WeActStudioV2/STM32Cube/libstm32cube.a(stm32g4xx_hal_rcc_ex.o)
 .debug_aranges
                0x00001218      0x398 Build_STM32G431_Slcan_WeActStudioV2/STM32Cube/libstm32cube.a(stm32g4xx_hal_tim.o)
 .debug_aranges
                0x000015b0       0xc8 Build_STM32G431_Slcan_WeActStudioV2/STM32Cube/libstm32cube.a(stm32g4xx_ll_usb.o)
 .debug_aranges
                0x00001678       0x20 /usr/lib/gcc/arm-none-eabi/13.2.1/../../../arm-none-eabi/lib/thumb/v7e-m/nofp/libc_nano.a(libc_a-sprintf.o)
 .debug_aranges
                0x00001698       0x20 /usr/lib/gcc/arm-none-eabi/13.2.1/../../../arm-none-eabi/lib/thumb/v7e-m/nofp/libc_nano.a(libc_a-strcpy.o)
 .debug_aranges
                0x000016b8       0x18 /usr/lib/gcc/arm-none-eabi/13.2.1/../../../arm-none-eabi/lib/thumb/v7e-m/nofp/libc_nano.a(libc_a-impure.o)
 .debug_aranges
                0x000016d0       0x20 /usr/lib/gcc/arm-none-eabi/13.2.1/../../../arm-none-eabi/lib/thumb/v7e-m/nofp/libc_nano.a(libc_a-nano-svfprintf.o)
 .debug_aranges
                0x000016f0       0x20 /usr/lib/gcc/arm-none-eabi/13.2.1/../../../arm-none-eabi/lib/thumb/v7e-m/nofp/libc_nano.a(libc_a-init.o)
 .debug_aranges
                0x00001710       0x20 /usr/lib/gcc/arm-none-eabi/13.2.1/../../../arm-none-eabi/lib/thumb/v7e-m/nofp/libc_nano.a(libc_a-strlen.o)
 .debug_aranges
                0x00001730       0x20 /usr/lib/gcc/arm-none-eabi/13.2.1/../../../arm-none-eabi/lib/thumb/v7e-m/nofp/libc_nano.a(libc_a-memset.o)
 .debug_aranges
                0x00001750       0x20 /usr/lib/gcc/arm-none-eabi/13.2.1/../../../arm-none-eabi/lib/thumb/v7e-m/nofp/libc_nano.a(libc_a-mallocr.o)
 .debug_aranges
                0x00001770       0x20 /usr/lib/gcc/arm-none-eabi/13.2.1/../../../arm-none-eabi/lib/thumb/v7e-m/nofp/libc_nano.a(libc_a-freer.o)
 .debug_aranges
                0x00001790       0x20 /usr/lib/gcc/arm-none-eabi/13.2.1/../../../arm-none-eabi/lib/thumb/v7e-m/nofp/libc_nano.a(libc_a-memmove.o)
 .debug_aranges
                0x000017b0       0x20 /usr/lib/gcc/arm-none-eabi/13.2.1/../../../arm-none-eabi/lib/thumb/v7e-m/nofp/libc_nano.a(libc_a-memchr.o)
 .debug_aranges
                0x000017d0       0x20 /usr/lib/gcc/arm-none-eabi/13.2.1/../../../arm-none-eabi/lib/thumb/v7e-m/nofp/libc_nano.a(libc_a-memcpy.o)
 .debug_aranges
                0x000017f0       0x20 /usr/lib/gcc/arm-none-eabi/13.2.1/../../../arm-none-eabi/lib/thumb/v7e-m/nofp/libc_nano.a(libc_a-reallocr.o)
 .debug_aranges
                0x00001810       0x20 /usr/lib/gcc/arm-none-eabi/13.2.1/../../../arm-none-eabi/lib/thumb/v7e-m/nofp/libc_nano.a(libc_a-nano-vfprintf_i.o)
 .debug_aranges
                0x00001830       0x20 /usr/lib/gcc/arm-none-eabi/13.2.1/../../../arm-none-eabi/lib/thumb/v7e-m/nofp/libc_nano.a(libc_a-mlock.o)
 .debug_aranges
                0x00001850       0x20 /usr/lib/gcc/arm-none-eabi/13.2.1/../../../arm-none-eabi/lib/thumb/v7e-m/nofp/libc_nano.a(libc_a-strncmp.o)
 .debug_aranges
                0x00001870       0x20 /usr/lib/gcc/arm-none-eabi/13.2.1/../../../arm-none-eabi/lib/thumb/v7e-m/nofp/libc_nano.a(libc_a-strcmp.o)
 .debug_aranges
                0x00001890       0x20 /usr/lib/gcc/arm-none-eabi/13.2.1/../../../arm-none-eabi/lib/thumb/v7e-m/nofp/libc_nano.a(libc_a-memcmp.o)
 .debug_aranges
                0x000018b0       0x20 /usr/lib/gcc/arm-none-eabi/13.2.1/../../../arm-none-eabi/lib/thumb/v7e-m/nofp/libc_nano.a(libc_a-sbrkr.o)
 .debug_aranges
                0x000018d0       0x20 /usr/lib/gcc/arm-none-eabi/13.2.1/../../../arm-none-eabi/lib/thumb/v7e-m/nofp/libc_nano.a(libc_a-msizer.o)
 .debug_aranges
                0x000018f0       0x20 /usr/lib/gcc/arm-none-eabi/13.2.1/../../../arm-none-eabi/lib/thumb/v7e-m/nofp/libc_nano.a(libc_a-findfp.o)
 .debug_aranges
                0x00001910       0x20 /usr/lib/gcc/arm-none-eabi/13.2.1/../../../arm-none-eabi/lib/thumb/v7e-m/nofp/libc_nano.a(libc_a-reent.o)
 .debug_aranges
                0x00001930       0x20 /usr/lib/gcc/arm-none-eabi/13.2.1/../../../arm-none-eabi/lib/thumb/v7e-m/nofp/libnosys.a(sbrk.o)

.debug_rnglists
                0x00000000     0x2023
 .debug_rnglists
                0x00000000       0x3b Build_STM32G431_Slcan_WeActStudioV2/main.o
 .debug_rnglists
                0x0000003b       0x19 Build_STM32G431_Slcan_WeActStudioV2/system_STM32G4xx.o
 .debug_rnglists
                0x00000054       0xde Build_STM32G431_Slcan_WeActStudioV2/system.o
 .debug_rnglists
                0x00000132       0x79 Build_STM32G431_Slcan_WeActStudioV2/interrupts.o
 .debug_rnglists
                0x000001ab      0x2d4 Build_STM32G431_Slcan_WeActStudioV2/can.o
 .debug_rnglists
                0x0000047f       0x44 Build_STM32G431_Slcan_WeActStudioV2/error.o
 .debug_rnglists
                0x000004c3       0xfd Build_STM32G431_Slcan_WeActStudioV2/led.o
 .debug_rnglists
                0x000005c0       0x31 Build_STM32G431_Slcan_WeActStudioV2/dfu.o
 .debug_rnglists
                0x000005f1       0xc5 Build_STM32G431_Slcan_WeActStudioV2/utils.o
 .debug_rnglists
                0x000006b6       0xb6 Build_STM32G431_Slcan_WeActStudioV2/usb_ctrlreq.o
 .debug_rnglists
                0x0000076c       0x37 Build_STM32G431_Slcan_WeActStudioV2/usb_ioreq.o
 .debug_rnglists
                0x000007a3       0x7a Build_STM32G431_Slcan_WeActStudioV2/usb_core.o
 .debug_rnglists
                0x0000081d       0xf7 Build_STM32G431_Slcan_WeActStudioV2/usb_lowlevel.o
 .debug_rnglists
                0x00000914       0x19 Build_STM32G431_Slcan_WeActStudioV2/startup_STM32G431.o
 .debug_rnglists
                0x0000092d       0xfa Build_STM32G431_Slcan_WeActStudioV2/Slcan/control.o
 .debug_rnglists
                0x00000a27       0xc5 Build_STM32G431_Slcan_WeActStudioV2/Slcan/buffer.o
 .debug_rnglists
                0x00000aec       0x62 Build_STM32G431_Slcan_WeActStudioV2/Slcan/usb_class.o
 .debug_rnglists
                0x00000b4e       0x43 Build_STM32G431_Slcan_WeActStudioV2/Slcan/usb_interface.o
 .debug_rnglists
                0x00000b91       0xf1 Build_STM32G431_Slcan_WeActStudioV2/STM32Cube/libstm32cube.a(stm32g4xx_hal.o)
 .debug_rnglists
                0x00000c82       0xfa Build_STM32G431_Slcan_WeActStudioV2/STM32Cube/libstm32cube.a(stm32g4xx_hal_cortex.o)
 .debug_rnglists
                0x00000d7c      0x1ac Build_STM32G431_Slcan_WeActStudioV2/STM32Cube/libstm32cube.a(stm32g4xx_hal_fdcan.o)
 .debug_rnglists
                0x00000f28       0xeb Build_STM32G431_Slcan_WeActStudioV2/STM32Cube/libstm32cube.a(stm32g4xx_hal_flash.o)
 .debug_rnglists
                0x00001013      0x103 Build_STM32G431_Slcan_WeActStudioV2/STM32Cube/libstm32cube.a(stm32g4xx_hal_flash_ex.o)
 .debug_rnglists
                0x00001116       0x4d Build_STM32G431_Slcan_WeActStudioV2/STM32Cube/libstm32cube.a(stm32g4xx_hal_gpio.o)
 .debug_rnglists
                0x00001163      0x261 Build_STM32G431_Slcan_WeActStudioV2/STM32Cube/libstm32cube.a(stm32g4xx_hal_pcd.o)
 .debug_rnglists
                0x000013c4       0x3e Build_STM32G431_Slcan_WeActStudioV2/STM32Cube/libstm32cube.a(stm32g4xx_hal_pcd_ex.o)
 .debug_rnglists
                0x00001402       0xf0 Build_STM32G431_Slcan_WeActStudioV2/STM32Cube/libstm32cube.a(stm32g4xx_hal_pwr_ex.o)
 .debug_rnglists
                0x000014f2       0xab Build_STM32G431_Slcan_WeActStudioV2/STM32Cube/libstm32cube.a(stm32g4xx_hal_rcc.o)
 .debug_rnglists
                0x0000159d       0xbc Build_STM32G431_Slcan_WeActStudioV2/STM32Cube/libstm32cube.a(stm32g4xx_hal_rcc_ex.o)
 .debug_rnglists
                0x00001659      0x5d3 Build_STM32G431_Slcan_WeActStudioV2/STM32Cube/libstm32cube.a(stm32g4xx_hal_tim.o)
 .debug_rnglists
                0x00001c2c      0x293 Build_STM32G431_Slcan_WeActStudioV2/STM32Cube/libstm32cube.a(stm32g4xx_ll_usb.o)
 .debug_rnglists
                0x00001ebf       0x14 /usr/lib/gcc/arm-none-eabi/13.2.1/../../../arm-none-eabi/lib/thumb/v7e-m/nofp/libc_nano.a(libc_a-strcpy.o)
 .debug_rnglists
                0x00001ed3       0x42 /usr/lib/gcc/arm-none-eabi/13.2.1/../../../arm-none-eabi/lib/thumb/v7e-m/nofp/libc_nano.a(libc_a-nano-svfprintf.o)
 .debug_rnglists
                0x00001f15       0x1e /usr/lib/gcc/arm-none-eabi/13.2.1/../../../arm-none-eabi/lib/thumb/v7e-m/nofp/libc_nano.a(libc_a-mallocr.o)
 .debug_rnglists
                0x00001f33       0x13 /usr/lib/gcc/arm-none-eabi/13.2.1/../../../arm-none-eabi/lib/thumb/v7e-m/nofp/libc_nano.a(libc_a-freer.o)
 .debug_rnglists
                0x00001f46       0x66 /usr/lib/gcc/arm-none-eabi/13.2.1/../../../arm-none-eabi/lib/thumb/v7e-m/nofp/libc_nano.a(libc_a-nano-vfprintf_i.o)
 .debug_rnglists
                0x00001fac       0x77 /usr/lib/gcc/arm-none-eabi/13.2.1/../../../arm-none-eabi/lib/thumb/v7e-m/nofp/libc_nano.a(libc_a-findfp.o)

.debug_line     0x00000000    0x1b233
 .debug_line    0x00000000      0x253 Build_STM32G431_Slcan_WeActStudioV2/main.o
 .debug_line    0x00000253      0x183 Build_STM32G431_Slcan_WeActStudioV2/system_STM32G4xx.o
 .debug_line    0x000003d6      0x93c Build_STM32G431_Slcan_WeActStudioV2/system.o
 .debug_line    0x00000d12      0x301 Build_STM32G431_Slcan_WeActStudioV2/interrupts.o
 .debug_line    0x00001013     0x16cb Build_STM32G431_Slcan_WeActStudioV2/can.o
 .debug_line    0x000026de      0x416 Build_STM32G431_Slcan_WeActStudioV2/error.o
 .debug_line    0x00002af4      0x790 Build_STM32G431_Slcan_WeActStudioV2/led.o
 .debug_line    0x00003284      0x33e Build_STM32G431_Slcan_WeActStudioV2/dfu.o
 .debug_line    0x000035c2      0x7b6 Build_STM32G431_Slcan_WeActStudioV2/utils.o
 .debug_line    0x00003d78      0x864 Build_STM32G431_Slcan_WeActStudioV2/usb_ctrlreq.o
 .debug_line    0x000045dc      0x1b3 Build_STM32G431_Slcan_WeActStudioV2/usb_ioreq.o
 .debug_line    0x0000478f      0x54d Build_STM32G431_Slcan_WeActStudioV2/usb_core.o
 .debug_line    0x00004cdc      0x72b Build_STM32G431_Slcan_WeActStudioV2/usb_lowlevel.o
 .debug_line    0x00005407       0x7b Build_STM32G431_Slcan_WeActStudioV2/startup_STM32G431.o
 .debug_line    0x00005482      0xed3 Build_STM32G431_Slcan_WeActStudioV2/Slcan/control.o
 .debug_line    0x00006355      0x90e Build_STM32G431_Slcan_WeActStudioV2/Slcan/buffer.o
 .debug_line    0x00006c63      0x593 Build_STM32G431_Slcan_WeActStudioV2/Slcan/usb_class.o
 .debug_line    0x000071f6      0x2b0 Build_STM32G431_Slcan_WeActStudioV2/Slcan/usb_interface.o
 .debug_line    0x000074a6      0x68f Build_STM32G431_Slcan_WeActStudioV2/STM32Cube/libstm32cube.a(stm32g4xx_hal.o)
 .debug_line    0x00007b35      0x792 Build_STM32G431_Slcan_WeActStudioV2/STM32Cube/libstm32cube.a(stm32g4xx_hal_cortex.o)
 .debug_line    0x000082c7     0x1e8e Build_STM32G431_Slcan_WeActStudioV2/STM32Cube/libstm32cube.a(stm32g4xx_hal_fdcan.o)
 .debug_line    0x0000a155      0xb1d Build_STM32G431_Slcan_WeActStudioV2/STM32Cube/libstm32cube.a(stm32g4xx_hal_flash.o)
 .debug_line    0x0000ac72      0xb9f Build_STM32G431_Slcan_WeActStudioV2/STM32Cube/libstm32cube.a(stm32g4xx_hal_flash_ex.o)
 .debug_line    0x0000b811      0x991 Build_STM32G431_Slcan_WeActStudioV2/STM32Cube/libstm32cube.a(stm32g4xx_hal_gpio.o)
 .debug_line    0x0000c1a2     0x1b51 Build_STM32G431_Slcan_WeActStudioV2/STM32Cube/libstm32cube.a(stm32g4xx_hal_pcd.o)
 .debug_line    0x0000dcf3      0x3fd Build_STM32G431_Slcan_WeActStudioV2/STM32Cube/libstm32cube.a(stm32g4xx_hal_pcd_ex.o)
 .debug_line    0x0000e0f0      0x8c2 Build_STM32G431_Slcan_WeActStudioV2/STM32Cube/libstm32cube.a(stm32g4xx_hal_pwr_ex.o)
 .debug_line    0x0000e9b2      0xeab Build_STM32G431_Slcan_WeActStudioV2/STM32Cube/libstm32cube.a(stm32g4xx_hal_rcc.o)
 .debug_line    0x0000f85d      0xf52 Build_STM32G431_Slcan_WeActStudioV2/STM32Cube/libstm32cube.a(stm32g4xx_hal_rcc_ex.o)
 .debug_line    0x000107af     0x60e6 Build_STM32G431_Slcan_WeActStudioV2/STM32Cube/libstm32cube.a(stm32g4xx_hal_tim.o)
 .debug_line    0x00016895     0x15d9 Build_STM32G431_Slcan_WeActStudioV2/STM32Cube/libstm32cube.a(stm32g4xx_ll_usb.o)
 .debug_line    0x00017e6e      0x224 /usr/lib/gcc/arm-none-eabi/13.2.1/../../../arm-none-eabi/lib/thumb/v7e-m/nofp/libc_nano.a(libc_a-sprintf.o)
 .debug_line    0x00018092       0xb9 /usr/lib/gcc/arm-none-eabi/13.2.1/../../../arm-none-eabi/lib/thumb/v7e-m/nofp/libc_nano.a(libc_a-strcpy.o)
 .debug_line    0x0001814b       0xe7 /usr/lib/gcc/arm-none-eabi/13.2.1/../../../arm-none-eabi/lib/thumb/v7e-m/nofp/libc_nano.a(libc_a-impure.o)
 .debug_line    0x00018232      0x854 /usr/lib/gcc/arm-none-eabi/13.2.1/../../../arm-none-eabi/lib/thumb/v7e-m/nofp/libc_nano.a(libc_a-nano-svfprintf.o)
 .debug_line    0x00018a86      0x11e /usr/lib/gcc/arm-none-eabi/13.2.1/../../../arm-none-eabi/lib/thumb/v7e-m/nofp/libc_nano.a(libc_a-init.o)
 .debug_line    0x00018ba4       0x86 /usr/lib/gcc/arm-none-eabi/13.2.1/../../../arm-none-eabi/lib/thumb/v7e-m/nofp/libc_nano.a(libc_a-strlen.o)
 .debug_line    0x00018c2a      0x1b6 /usr/lib/gcc/arm-none-eabi/13.2.1/../../../arm-none-eabi/lib/thumb/v7e-m/nofp/libc_nano.a(libc_a-memset.o)
 .debug_line    0x00018de0      0x446 /usr/lib/gcc/arm-none-eabi/13.2.1/../../../arm-none-eabi/lib/thumb/v7e-m/nofp/libc_nano.a(libc_a-mallocr.o)
 .debug_line    0x00019226      0x2c3 /usr/lib/gcc/arm-none-eabi/13.2.1/../../../arm-none-eabi/lib/thumb/v7e-m/nofp/libc_nano.a(libc_a-freer.o)
 .debug_line    0x000194e9      0x1f1 /usr/lib/gcc/arm-none-eabi/13.2.1/../../../arm-none-eabi/lib/thumb/v7e-m/nofp/libc_nano.a(libc_a-memmove.o)
 .debug_line    0x000196da       0x84 /usr/lib/gcc/arm-none-eabi/13.2.1/../../../arm-none-eabi/lib/thumb/v7e-m/nofp/libc_nano.a(libc_a-memchr.o)
 .debug_line    0x0001975e       0xb9 /usr/lib/gcc/arm-none-eabi/13.2.1/../../../arm-none-eabi/lib/thumb/v7e-m/nofp/libc_nano.a(libc_a-memcpy.o)
 .debug_line    0x00019817      0x1f8 /usr/lib/gcc/arm-none-eabi/13.2.1/../../../arm-none-eabi/lib/thumb/v7e-m/nofp/libc_nano.a(libc_a-reallocr.o)
 .debug_line    0x00019a0f      0x75d /usr/lib/gcc/arm-none-eabi/13.2.1/../../../arm-none-eabi/lib/thumb/v7e-m/nofp/libc_nano.a(libc_a-nano-vfprintf_i.o)
 .debug_line    0x0001a16c      0x153 /usr/lib/gcc/arm-none-eabi/13.2.1/../../../arm-none-eabi/lib/thumb/v7e-m/nofp/libc_nano.a(libc_a-mlock.o)
 .debug_line    0x0001a2bf      0x1f6 /usr/lib/gcc/arm-none-eabi/13.2.1/../../../arm-none-eabi/lib/thumb/v7e-m/nofp/libc_nano.a(libc_a-strncmp.o)
 .debug_line    0x0001a4b5      0x10e /usr/lib/gcc/arm-none-eabi/13.2.1/../../../arm-none-eabi/lib/thumb/v7e-m/nofp/libc_nano.a(libc_a-strcmp.o)
 .debug_line    0x0001a5c3      0x17a /usr/lib/gcc/arm-none-eabi/13.2.1/../../../arm-none-eabi/lib/thumb/v7e-m/nofp/libc_nano.a(libc_a-memcmp.o)
 .debug_line    0x0001a73d      0x193 /usr/lib/gcc/arm-none-eabi/13.2.1/../../../arm-none-eabi/lib/thumb/v7e-m/nofp/libc_nano.a(libc_a-sbrkr.o)
 .debug_line    0x0001a8d0      0x176 /usr/lib/gcc/arm-none-eabi/13.2.1/../../../arm-none-eabi/lib/thumb/v7e-m/nofp/libc_nano.a(libc_a-msizer.o)
 .debug_line    0x0001aa46      0x4fc /usr/lib/gcc/arm-none-eabi/13.2.1/../../../arm-none-eabi/lib/thumb/v7e-m/nofp/libc_nano.a(libc_a-findfp.o)
 .debug_line    0x0001af42      0x27b /usr/lib/gcc/arm-none-eabi/13.2.1/../../../arm-none-eabi/lib/thumb/v7e-m/nofp/libc_nano.a(libc_a-reent.o)
 .debug_line    0x0001b1bd       0x76 /usr/lib/gcc/arm-none-eabi/13.2.1/../../../arm-none-eabi/lib/thumb/v7e-m/nofp/libnosys.a(sbrk.o)

.debug_str      0x00000000     0x8482
 .debug_str     0x00000000     0x8482 Build_STM32G431_Slcan_WeActStudioV2/main.o
                                0x29c (size before relaxing)
 .debug_str     0x00008482      0x38b Build_STM32G431_Slcan_WeActStudioV2/system_STM32G4xx.o
 .debug_str     0x00008482     0x1a3e Build_STM32G431_Slcan_WeActStudioV2/system.o
 .debug_str     0x00008482      0x968 Build_STM32G431_Slcan_WeActStudioV2/interrupts.o
 .debug_str     0x00008482     0x146d Build_STM32G431_Slcan_WeActStudioV2/can.o
 .debug_str     0x00008482      0x917 Build_STM32G431_Slcan_WeActStudioV2/error.o
 .debug_str     0x00008482      0x4ef Build_STM32G431_Slcan_WeActStudioV2/led.o
 .debug_str     0x00008482      0x5bd Build_STM32G431_Slcan_WeActStudioV2/dfu.o
 .debug_str     0x00008482      0x38e Build_STM32G431_Slcan_WeActStudioV2/utils.o
 .debug_str     0x00008482      0x5f1 Build_STM32G431_Slcan_WeActStudioV2/usb_ctrlreq.o
 .debug_str     0x00008482      0x41d Build_STM32G431_Slcan_WeActStudioV2/usb_ioreq.o
 .debug_str     0x00008482      0x630 Build_STM32G431_Slcan_WeActStudioV2/usb_core.o
 .debug_str     0x00008482     0x10ba Build_STM32G431_Slcan_WeActStudioV2/usb_lowlevel.o
 .debug_str     0x00008482       0x87 Build_STM32G431_Slcan_WeActStudioV2/startup_STM32G431.o
 .debug_str     0x00008482      0xc77 Build_STM32G431_Slcan_WeActStudioV2/Slcan/control.o
 .debug_str     0x00008482      0x790 Build_STM32G431_Slcan_WeActStudioV2/Slcan/buffer.o
 .debug_str     0x00008482      0x9fd Build_STM32G431_Slcan_WeActStudioV2/Slcan/usb_class.o
 .debug_str     0x00008482      0x410 Build_STM32G431_Slcan_WeActStudioV2/Slcan/usb_interface.o
 .debug_str     0x00008482      0xc7d Build_STM32G431_Slcan_WeActStudioV2/STM32Cube/libstm32cube.a(stm32g4xx_hal.o)
 .debug_str     0x00008482      0xb6d Build_STM32G431_Slcan_WeActStudioV2/STM32Cube/libstm32cube.a(stm32g4xx_hal_cortex.o)
 .debug_str     0x00008482     0x11ef Build_STM32G431_Slcan_WeActStudioV2/STM32Cube/libstm32cube.a(stm32g4xx_hal_fdcan.o)
 .debug_str     0x00008482      0x5f1 Build_STM32G431_Slcan_WeActStudioV2/STM32Cube/libstm32cube.a(stm32g4xx_hal_flash.o)
 .debug_str     0x00008482      0x724 Build_STM32G431_Slcan_WeActStudioV2/STM32Cube/libstm32cube.a(stm32g4xx_hal_flash_ex.o)
 .debug_str     0x00008482      0x4f4 Build_STM32G431_Slcan_WeActStudioV2/STM32Cube/libstm32cube.a(stm32g4xx_hal_gpio.o)
 .debug_str     0x00008482      0xa9f Build_STM32G431_Slcan_WeActStudioV2/STM32Cube/libstm32cube.a(stm32g4xx_hal_pcd.o)
 .debug_str     0x00008482      0x729 Build_STM32G431_Slcan_WeActStudioV2/STM32Cube/libstm32cube.a(stm32g4xx_hal_pcd_ex.o)
 .debug_str     0x00008482      0x797 Build_STM32G431_Slcan_WeActStudioV2/STM32Cube/libstm32cube.a(stm32g4xx_hal_pwr_ex.o)
 .debug_str     0x00008482      0x7e4 Build_STM32G431_Slcan_WeActStudioV2/STM32Cube/libstm32cube.a(stm32g4xx_hal_rcc.o)
 .debug_str     0x00008482      0x9ca Build_STM32G431_Slcan_WeActStudioV2/STM32Cube/libstm32cube.a(stm32g4xx_hal_rcc_ex.o)
 .debug_str     0x00008482     0x1859 Build_STM32G431_Slcan_WeActStudioV2/STM32Cube/libstm32cube.a(stm32g4xx_hal_tim.o)
 .debug_str     0x00008482      0x62a Build_STM32G431_Slcan_WeActStudioV2/STM32Cube/libstm32cube.a(stm32g4xx_ll_usb.o)
 .debug_str     0x00008482      0x4f5 /usr/lib/gcc/arm-none-eabi/13.2.1/../../../arm-none-eabi/lib/thumb/v7e-m/nofp/libc_nano.a(libc_a-sprintf.o)
 .debug_str     0x00008482      0x191 /usr/lib/gcc/arm-none-eabi/13.2.1/../../../arm-none-eabi/lib/thumb/v7e-m/nofp/libc_nano.a(libc_a-strcpy.o)
 .debug_str     0x00008482      0x4b6 /usr/lib/gcc/arm-none-eabi/13.2.1/../../../arm-none-eabi/lib/thumb/v7e-m/nofp/libc_nano.a(libc_a-impure.o)
 .debug_str     0x00008482      0x7ff /usr/lib/gcc/arm-none-eabi/13.2.1/../../../arm-none-eabi/lib/thumb/v7e-m/nofp/libc_nano.a(libc_a-nano-svfprintf.o)
 .debug_str     0x00008482      0x1f4 /usr/lib/gcc/arm-none-eabi/13.2.1/../../../arm-none-eabi/lib/thumb/v7e-m/nofp/libc_nano.a(libc_a-init.o)
 .debug_str     0x00008482       0xa8 /usr/lib/gcc/arm-none-eabi/13.2.1/../../../arm-none-eabi/lib/thumb/v7e-m/nofp/libc_nano.a(libc_a-strlen.o)
 .debug_str     0x00008482      0x1a7 /usr/lib/gcc/arm-none-eabi/13.2.1/../../../arm-none-eabi/lib/thumb/v7e-m/nofp/libc_nano.a(libc_a-memset.o)
 .debug_str     0x00008482      0x597 /usr/lib/gcc/arm-none-eabi/13.2.1/../../../arm-none-eabi/lib/thumb/v7e-m/nofp/libc_nano.a(libc_a-mallocr.o)
 .debug_str     0x00008482      0x536 /usr/lib/gcc/arm-none-eabi/13.2.1/../../../arm-none-eabi/lib/thumb/v7e-m/nofp/libc_nano.a(libc_a-freer.o)
 .debug_str     0x00008482      0x1c6 /usr/lib/gcc/arm-none-eabi/13.2.1/../../../arm-none-eabi/lib/thumb/v7e-m/nofp/libc_nano.a(libc_a-memmove.o)
 .debug_str     0x00008482       0x9b /usr/lib/gcc/arm-none-eabi/13.2.1/../../../arm-none-eabi/lib/thumb/v7e-m/nofp/libc_nano.a(libc_a-memchr.o)
 .debug_str     0x00008482       0xa9 /usr/lib/gcc/arm-none-eabi/13.2.1/../../../arm-none-eabi/lib/thumb/v7e-m/nofp/libc_nano.a(libc_a-memcpy.o)
 .debug_str     0x00008482      0x52c /usr/lib/gcc/arm-none-eabi/13.2.1/../../../arm-none-eabi/lib/thumb/v7e-m/nofp/libc_nano.a(libc_a-reallocr.o)
 .debug_str     0x00008482      0x795 /usr/lib/gcc/arm-none-eabi/13.2.1/../../../arm-none-eabi/lib/thumb/v7e-m/nofp/libc_nano.a(libc_a-nano-vfprintf_i.o)
 .debug_str     0x00008482      0x4d4 /usr/lib/gcc/arm-none-eabi/13.2.1/../../../arm-none-eabi/lib/thumb/v7e-m/nofp/libc_nano.a(libc_a-mlock.o)
 .debug_str     0x00008482      0x195 /usr/lib/gcc/arm-none-eabi/13.2.1/../../../arm-none-eabi/lib/thumb/v7e-m/nofp/libc_nano.a(libc_a-strncmp.o)
 .debug_str     0x00008482       0xa8 /usr/lib/gcc/arm-none-eabi/13.2.1/../../../arm-none-eabi/lib/thumb/v7e-m/nofp/libc_nano.a(libc_a-strcmp.o)
 .debug_str     0x00008482      0x193 /usr/lib/gcc/arm-none-eabi/13.2.1/../../../arm-none-eabi/lib/thumb/v7e-m/nofp/libc_nano.a(libc_a-memcmp.o)
 .debug_str     0x00008482      0x4bf /usr/lib/gcc/arm-none-eabi/13.2.1/../../../arm-none-eabi/lib/thumb/v7e-m/nofp/libc_nano.a(libc_a-sbrkr.o)
 .debug_str     0x00008482      0x4ff /usr/lib/gcc/arm-none-eabi/13.2.1/../../../arm-none-eabi/lib/thumb/v7e-m/nofp/libc_nano.a(libc_a-msizer.o)
 .debug_str     0x00008482      0x6b9 /usr/lib/gcc/arm-none-eabi/13.2.1/../../../arm-none-eabi/lib/thumb/v7e-m/nofp/libc_nano.a(libc_a-findfp.o)
 .debug_str     0x00008482      0x4d5 /usr/lib/gcc/arm-none-eabi/13.2.1/../../../arm-none-eabi/lib/thumb/v7e-m/nofp/libc_nano.a(libc_a-reent.o)
 .debug_str     0x00008482      0x117 /usr/lib/gcc/arm-none-eabi/13.2.1/../../../arm-none-eabi/lib/thumb/v7e-m/nofp/libnosys.a(sbrk.o)

.debug_frame    0x00000000     0x3fb8
 .debug_frame   0x00000000       0x74 Build_STM32G431_Slcan_WeActStudioV2/main.o
 .debug_frame   0x00000074       0x30 Build_STM32G431_Slcan_WeActStudioV2/system_STM32G4xx.o
 .debug_frame   0x000000a4      0x1b8 Build_STM32G431_Slcan_WeActStudioV2/system.o
 .debug_frame   0x0000025c      0x154 Build_STM32G431_Slcan_WeActStudioV2/interrupts.o
 .debug_frame   0x000003b0      0x3ac Build_STM32G431_Slcan_WeActStudioV2/can.o
 .debug_frame   0x0000075c       0xd0 Build_STM32G431_Slcan_WeActStudioV2/error.o
 .debug_frame   0x0000082c      0x1a4 Build_STM32G431_Slcan_WeActStudioV2/led.o
 .debug_frame   0x000009d0       0x90 Build_STM32G431_Slcan_WeActStudioV2/dfu.o
 .debug_frame   0x00000a60      0x15c Build_STM32G431_Slcan_WeActStudioV2/utils.o
 .debug_frame   0x00000bbc       0xcc Build_STM32G431_Slcan_WeActStudioV2/usb_ctrlreq.o
 .debug_frame   0x00000c88       0xb0 Build_STM32G431_Slcan_WeActStudioV2/usb_ioreq.o
 .debug_frame   0x00000d38      0x198 Build_STM32G431_Slcan_WeActStudioV2/usb_core.o
 .debug_frame   0x00000ed0      0x2d8 Build_STM32G431_Slcan_WeActStudioV2/usb_lowlevel.o
 .debug_frame   0x000011a8      0x27c Build_STM32G431_Slcan_WeActStudioV2/Slcan/control.o
 .debug_frame   0x00001424      0x158 Build_STM32G431_Slcan_WeActStudioV2/Slcan/buffer.o
 .debug_frame   0x0000157c      0x138 Build_STM32G431_Slcan_WeActStudioV2/Slcan/usb_class.o
 .debug_frame   0x000016b4       0xbc Build_STM32G431_Slcan_WeActStudioV2/Slcan/usb_interface.o
 .debug_frame   0x00001770      0x2b0 Build_STM32G431_Slcan_WeActStudioV2/STM32Cube/libstm32cube.a(stm32g4xx_hal.o)
 .debug_frame   0x00001a20      0x178 Build_STM32G431_Slcan_WeActStudioV2/STM32Cube/libstm32cube.a(stm32g4xx_hal_cortex.o)
 .debug_frame   0x00001b98      0x4dc Build_STM32G431_Slcan_WeActStudioV2/STM32Cube/libstm32cube.a(stm32g4xx_hal_fdcan.o)
 .debug_frame   0x00002074      0x118 Build_STM32G431_Slcan_WeActStudioV2/STM32Cube/libstm32cube.a(stm32g4xx_hal_flash.o)
 .debug_frame   0x0000218c       0xe4 Build_STM32G431_Slcan_WeActStudioV2/STM32Cube/libstm32cube.a(stm32g4xx_hal_flash_ex.o)
 .debug_frame   0x00002270      0x108 Build_STM32G431_Slcan_WeActStudioV2/STM32Cube/libstm32cube.a(stm32g4xx_hal_gpio.o)
 .debug_frame   0x00002378      0x304 Build_STM32G431_Slcan_WeActStudioV2/STM32Cube/libstm32cube.a(stm32g4xx_hal_pcd.o)
 .debug_frame   0x0000267c       0xa8 Build_STM32G431_Slcan_WeActStudioV2/STM32Cube/libstm32cube.a(stm32g4xx_hal_pcd_ex.o)
 .debug_frame   0x00002724      0x268 Build_STM32G431_Slcan_WeActStudioV2/STM32Cube/libstm32cube.a(stm32g4xx_hal_pwr_ex.o)
 .debug_frame   0x0000298c      0x1a4 Build_STM32G431_Slcan_WeActStudioV2/STM32Cube/libstm32cube.a(stm32g4xx_hal_rcc.o)
 .debug_frame   0x00002b30      0x1c8 Build_STM32G431_Slcan_WeActStudioV2/STM32Cube/libstm32cube.a(stm32g4xx_hal_rcc_ex.o)
 .debug_frame   0x00002cf8      0xb18 Build_STM32G431_Slcan_WeActStudioV2/STM32Cube/libstm32cube.a(stm32g4xx_hal_tim.o)
 .debug_frame   0x00003810      0x1dc Build_STM32G431_Slcan_WeActStudioV2/STM32Cube/libstm32cube.a(stm32g4xx_ll_usb.o)
 .debug_frame   0x000039ec       0x78 /usr/lib/gcc/arm-none-eabi/13.2.1/../../../arm-none-eabi/lib/thumb/v7e-m/nofp/libc_nano.a(libc_a-sprintf.o)
 .debug_frame   0x00003a64       0x20 /usr/lib/gcc/arm-none-eabi/13.2.1/../../../arm-none-eabi/lib/thumb/v7e-m/nofp/libc_nano.a(libc_a-strcpy.o)
 .debug_frame   0x00003a84       0x98 /usr/lib/gcc/arm-none-eabi/13.2.1/../../../arm-none-eabi/lib/thumb/v7e-m/nofp/libc_nano.a(libc_a-nano-svfprintf.o)
 .debug_frame   0x00003b1c       0x2c /usr/lib/gcc/arm-none-eabi/13.2.1/../../../arm-none-eabi/lib/thumb/v7e-m/nofp/libc_nano.a(libc_a-init.o)
 .debug_frame   0x00003b48       0x2c /usr/lib/gcc/arm-none-eabi/13.2.1/../../../arm-none-eabi/lib/thumb/v7e-m/nofp/libc_nano.a(libc_a-memset.o)
 .debug_frame   0x00003b74       0x50 /usr/lib/gcc/arm-none-eabi/13.2.1/../../../arm-none-eabi/lib/thumb/v7e-m/nofp/libc_nano.a(libc_a-mallocr.o)
 .debug_frame   0x00003bc4       0x58 /usr/lib/gcc/arm-none-eabi/13.2.1/../../../arm-none-eabi/lib/thumb/v7e-m/nofp/libc_nano.a(libc_a-freer.o)
 .debug_frame   0x00003c1c       0x40 /usr/lib/gcc/arm-none-eabi/13.2.1/../../../arm-none-eabi/lib/thumb/v7e-m/nofp/libc_nano.a(libc_a-memmove.o)
 .debug_frame   0x00003c5c       0x38 /usr/lib/gcc/arm-none-eabi/13.2.1/../../../arm-none-eabi/lib/thumb/v7e-m/nofp/libc_nano.a(libc_a-reallocr.o)
 .debug_frame   0x00003c94       0x6c /usr/lib/gcc/arm-none-eabi/13.2.1/../../../arm-none-eabi/lib/thumb/v7e-m/nofp/libc_nano.a(libc_a-nano-vfprintf_i.o)
 .debug_frame   0x00003d00       0x30 /usr/lib/gcc/arm-none-eabi/13.2.1/../../../arm-none-eabi/lib/thumb/v7e-m/nofp/libc_nano.a(libc_a-mlock.o)
 .debug_frame   0x00003d30       0x38 /usr/lib/gcc/arm-none-eabi/13.2.1/../../../arm-none-eabi/lib/thumb/v7e-m/nofp/libc_nano.a(libc_a-strncmp.o)
 .debug_frame   0x00003d68       0x7c /usr/lib/gcc/arm-none-eabi/13.2.1/../../../arm-none-eabi/lib/thumb/v7e-m/nofp/libc_nano.a(libc_a-strcmp.o)
 .debug_frame   0x00003de4       0x34 /usr/lib/gcc/arm-none-eabi/13.2.1/../../../arm-none-eabi/lib/thumb/v7e-m/nofp/libc_nano.a(libc_a-memcmp.o)
 .debug_frame   0x00003e18       0x2c /usr/lib/gcc/arm-none-eabi/13.2.1/../../../arm-none-eabi/lib/thumb/v7e-m/nofp/libc_nano.a(libc_a-sbrkr.o)
 .debug_frame   0x00003e44       0x20 /usr/lib/gcc/arm-none-eabi/13.2.1/../../../arm-none-eabi/lib/thumb/v7e-m/nofp/libc_nano.a(libc_a-msizer.o)
 .debug_frame   0x00003e64       0xf4 /usr/lib/gcc/arm-none-eabi/13.2.1/../../../arm-none-eabi/lib/thumb/v7e-m/nofp/libc_nano.a(libc_a-findfp.o)
 .debug_frame   0x00003f58       0x40 /usr/lib/gcc/arm-none-eabi/13.2.1/../../../arm-none-eabi/lib/thumb/v7e-m/nofp/libc_nano.a(libc_a-reent.o)
 .debug_frame   0x00003f98       0x20 /usr/lib/gcc/arm-none-eabi/13.2.1/../../../arm-none-eabi/lib/thumb/v7e-m/nofp/libnosys.a(sbrk.o)

.debug_line_str
                0x00000000      0x12a
 .debug_line_str
                0x00000000      0x12a Build_STM32G431_Slcan_WeActStudioV2/startup_STM32G431.o
                                 0x6d (size before relaxing)
 .debug_line_str
                0x0000012a       0x95 /usr/lib/gcc/arm-none-eabi/13.2.1/../../../arm-none-eabi/lib/thumb/v7e-m/nofp/libc_nano.a(libc_a-strlen.o)
 .debug_line_str
                0x0000012a       0x8f /usr/lib/gcc/arm-none-eabi/13.2.1/../../../arm-none-eabi/lib/thumb/v7e-m/nofp/libc_nano.a(libc_a-memchr.o)
 .debug_line_str
                0x0000012a       0x96 /usr/lib/gcc/arm-none-eabi/13.2.1/../../../arm-none-eabi/lib/thumb/v7e-m/nofp/libc_nano.a(libc_a-memcpy.o)
 .debug_line_str
                0x0000012a       0x95 /usr/lib/gcc/arm-none-eabi/13.2.1/../../../arm-none-eabi/lib/thumb/v7e-m/nofp/libc_nano.a(libc_a-strcmp.o)
